---
triple:          'arm64-apple-darwin'
binary-path:     '/Users/yigit/Documents/GitHub/PETE444Yigit/CodeStudy02/CodeStudyMain'
relocations:
  - { offsetInCU: 0x3192, offset: 0x3192, size: 0x8, addend: 0x0, symName: __ZNSt3__124__put_character_sequenceB7v160006IcNS_11char_traitsIcEEEERNS_13basic_ostreamIT_T0_EES7_PKS4_m, symObjAddr: 0x7B4, symBinAddr: 0x1000046DC, symSize: 0x1F4 }
  - { offsetInCU: 0x4AC9, offset: 0x4AC9, size: 0x8, addend: 0x0, symName: __ZNSt3__1lsB7v160006INS_11char_traitsIcEEEERNS_13basic_ostreamIcT_EES6_PKc, symObjAddr: 0x6DC, symBinAddr: 0x100004604, symSize: 0x48 }
  - { offsetInCU: 0x4B0F, offset: 0x4B0F, size: 0x8, addend: 0x0, symName: __ZNSt3__14endlB7v160006IcNS_11char_traitsIcEEEERNS_13basic_ostreamIT_T0_EES7_, symObjAddr: 0x750, symBinAddr: 0x100004678, symSize: 0x58 }
  - { offsetInCU: 0x4B4F, offset: 0x4B4F, size: 0x8, addend: 0x0, symName: __ZNSt3__116__pad_and_outputB7v160006IcNS_11char_traitsIcEEEENS_19ostreambuf_iteratorIT_T0_EES6_PKS4_S8_S8_RNS_8ios_baseES4_, symObjAddr: 0xA0C, symBinAddr: 0x100004934, symSize: 0x248 }
  - { offsetInCU: 0x4C1E, offset: 0x4C1E, size: 0x8, addend: 0x0, symName: __ZNSt3__119__debug_db_insert_cB7v160006INS_12basic_stringIcNS_11char_traitsIcEENS_9allocatorIcEEEEEEvPT_, symObjAddr: 0xEC8, symBinAddr: 0x100004DF0, symSize: 0x10 }
  - { offsetInCU: 0x4C4F, offset: 0x4C4F, size: 0x8, addend: 0x0, symName: __ZNSt3__112__to_addressB7v160006IKcEEPT_S3_, symObjAddr: 0xF94, symBinAddr: 0x100004EBC, symSize: 0x14 }
  - { offsetInCU: 0x4C84, offset: 0x4C84, size: 0x8, addend: 0x0, symName: __ZNSt3__130__libcpp_is_constant_evaluatedB7v160006Ev, symObjAddr: 0x10C0, symBinAddr: 0x100004FE8, symSize: 0xC }
  - { offsetInCU: 0x4CD4, offset: 0x4CD4, size: 0x8, addend: 0x0, symName: __ZNSt3__19use_facetB7v160006INS_5ctypeIcEEEERKT_RKNS_6localeE, symObjAddr: 0x1278, symBinAddr: 0x1000051A0, symSize: 0x2C }
  - { offsetInCU: 0x51A3, offset: 0x51A3, size: 0x8, addend: 0x0, symName: __ZNSt3__118__constexpr_strlenB7v160006EPKc, symObjAddr: 0x1310, symBinAddr: 0x100005238, symSize: 0x24 }
  - { offsetInCU: 0x835F, offset: 0x835F, size: 0x8, addend: 0x0, symName: __Z4funcd, symObjAddr: 0x0, symBinAddr: 0x100003F28, symSize: 0x40 }
  - { offsetInCU: 0x8399, offset: 0x8399, size: 0x8, addend: 0x0, symName: __Z5dfuncd, symObjAddr: 0x40, symBinAddr: 0x100003F68, symSize: 0x50 }
  - { offsetInCU: 0x83D3, offset: 0x83D3, size: 0x8, addend: 0x0, symName: _main, symObjAddr: 0x90, symBinAddr: 0x100003FB8, symSize: 0x64C }
  - { offsetInCU: 0x84D5, offset: 0x84D5, size: 0x8, addend: 0x0, symName: __ZNSt3__113basic_ostreamIcNS_11char_traitsIcEEElsB7v160006EPFRS3_S4_E, symObjAddr: 0x724, symBinAddr: 0x10000464C, symSize: 0x2C }
  - { offsetInCU: 0x8507, offset: 0x8507, size: 0x8, addend: 0x0, symName: __ZNSt3__111char_traitsIcE6lengthEPKc, symObjAddr: 0x9A8, symBinAddr: 0x1000048D0, symSize: 0x48 }
  - { offsetInCU: 0x8547, offset: 0x8547, size: 0x8, addend: 0x0, symName: __ZNKSt3__113basic_ostreamIcNS_11char_traitsIcEEE6sentrycvbB7v160006Ev, symObjAddr: 0x9F0, symBinAddr: 0x100004918, symSize: 0x1C }
  - { offsetInCU: 0x856B, offset: 0x856B, size: 0x8, addend: 0x0, symName: __ZNSt3__119ostreambuf_iteratorIcNS_11char_traitsIcEEEC1B7v160006ERNS_13basic_ostreamIcS2_EE, symObjAddr: 0xC54, symBinAddr: 0x100004B7C, symSize: 0x34 }
  - { offsetInCU: 0x85A1, offset: 0x85A1, size: 0x8, addend: 0x0, symName: __ZNKSt3__18ios_base5flagsB7v160006Ev, symObjAddr: 0xC88, symBinAddr: 0x100004BB0, symSize: 0x18 }
  - { offsetInCU: 0x85C7, offset: 0x85C7, size: 0x8, addend: 0x0, symName: __ZNKSt3__19basic_iosIcNS_11char_traitsIcEEE4fillB7v160006Ev, symObjAddr: 0xCA0, symBinAddr: 0x100004BC8, symSize: 0x64 }
  - { offsetInCU: 0x85ED, offset: 0x85ED, size: 0x8, addend: 0x0, symName: __ZNKSt3__119ostreambuf_iteratorIcNS_11char_traitsIcEEE6failedB7v160006Ev, symObjAddr: 0xD04, symBinAddr: 0x100004C2C, symSize: 0x24 }
  - { offsetInCU: 0x8611, offset: 0x8611, size: 0x8, addend: 0x0, symName: __ZNSt3__19basic_iosIcNS_11char_traitsIcEEE8setstateB7v160006Ej, symObjAddr: 0xD28, symBinAddr: 0x100004C50, symSize: 0x2C }
  - { offsetInCU: 0x8644, offset: 0x8644, size: 0x8, addend: 0x0, symName: __ZNKSt3__18ios_base5widthB7v160006Ev, symObjAddr: 0xD54, symBinAddr: 0x100004C7C, symSize: 0x18 }
  - { offsetInCU: 0x866A, offset: 0x866A, size: 0x8, addend: 0x0, symName: __ZNSt3__115basic_streambufIcNS_11char_traitsIcEEE5sputnB7v160006EPKcl, symObjAddr: 0xD6C, symBinAddr: 0x100004C94, symSize: 0x3C }
  - { offsetInCU: 0x86AA, offset: 0x86AA, size: 0x8, addend: 0x0, symName: __ZNSt3__112basic_stringIcNS_11char_traitsIcEENS_9allocatorIcEEEC1B7v160006Emc, symObjAddr: 0xDA8, symBinAddr: 0x100004CD0, symSize: 0x3C }
  - { offsetInCU: 0x86F0, offset: 0x86F0, size: 0x8, addend: 0x0, symName: __ZNKSt3__112basic_stringIcNS_11char_traitsIcEENS_9allocatorIcEEE4dataB7v160006Ev, symObjAddr: 0xDE4, symBinAddr: 0x100004D0C, symSize: 0x28 }
  - { offsetInCU: 0x8714, offset: 0x8714, size: 0x8, addend: 0x0, symName: __ZNSt3__18ios_base5widthB7v160006El, symObjAddr: 0xE0C, symBinAddr: 0x100004D34, symSize: 0x2C }
  - { offsetInCU: 0x8758, offset: 0x8758, size: 0x8, addend: 0x0, symName: __ZNSt3__112basic_stringIcNS_11char_traitsIcEENS_9allocatorIcEEEC2B7v160006Emc, symObjAddr: 0xE38, symBinAddr: 0x100004D60, symSize: 0x54 }
  - { offsetInCU: 0x87A3, offset: 0x87A3, size: 0x8, addend: 0x0, symName: __ZNSt3__117__compressed_pairINS_12basic_stringIcNS_11char_traitsIcEENS_9allocatorIcEEE5__repES5_EC1B7v160006INS_18__default_init_tagESA_EEOT_OT0_, symObjAddr: 0xE8C, symBinAddr: 0x100004DB4, symSize: 0x3C }
  - { offsetInCU: 0x87F9, offset: 0x87F9, size: 0x8, addend: 0x0, symName: __ZNSt3__117__compressed_pairINS_12basic_stringIcNS_11char_traitsIcEENS_9allocatorIcEEE5__repES5_EC2B7v160006INS_18__default_init_tagESA_EEOT_OT0_, symObjAddr: 0xED8, symBinAddr: 0x100004E00, symSize: 0x3C }
  - { offsetInCU: 0x884F, offset: 0x884F, size: 0x8, addend: 0x0, symName: __ZNSt3__122__compressed_pair_elemINS_12basic_stringIcNS_11char_traitsIcEENS_9allocatorIcEEE5__repELi0ELb0EEC2B7v160006ENS_18__default_init_tagE, symObjAddr: 0xF14, symBinAddr: 0x100004E3C, symSize: 0x14 }
  - { offsetInCU: 0x8881, offset: 0x8881, size: 0x8, addend: 0x0, symName: __ZNSt3__122__compressed_pair_elemINS_9allocatorIcEELi1ELb1EEC2B7v160006ENS_18__default_init_tagE, symObjAddr: 0xF28, symBinAddr: 0x100004E50, symSize: 0x2C }
  - { offsetInCU: 0x88B3, offset: 0x88B3, size: 0x8, addend: 0x0, symName: __ZNSt3__19allocatorIcEC2B7v160006Ev, symObjAddr: 0xF54, symBinAddr: 0x100004E7C, symSize: 0x2C }
  - { offsetInCU: 0x88DB, offset: 0x88DB, size: 0x8, addend: 0x0, symName: __ZNSt3__116__non_trivial_ifILb1ENS_9allocatorIcEEEC2B7v160006Ev, symObjAddr: 0xF80, symBinAddr: 0x100004EA8, symSize: 0x14 }
  - { offsetInCU: 0x8903, offset: 0x8903, size: 0x8, addend: 0x0, symName: __ZNKSt3__112basic_stringIcNS_11char_traitsIcEENS_9allocatorIcEEE13__get_pointerB7v160006Ev, symObjAddr: 0xFA8, symBinAddr: 0x100004ED0, symSize: 0x54 }
  - { offsetInCU: 0x8927, offset: 0x8927, size: 0x8, addend: 0x0, symName: __ZNKSt3__112basic_stringIcNS_11char_traitsIcEENS_9allocatorIcEEE9__is_longB7v160006Ev, symObjAddr: 0xFFC, symBinAddr: 0x100004F24, symSize: 0x74 }
  - { offsetInCU: 0x894B, offset: 0x894B, size: 0x8, addend: 0x0, symName: __ZNKSt3__112basic_stringIcNS_11char_traitsIcEENS_9allocatorIcEEE18__get_long_pointerB7v160006Ev, symObjAddr: 0x1070, symBinAddr: 0x100004F98, symSize: 0x28 }
  - { offsetInCU: 0x896F, offset: 0x896F, size: 0x8, addend: 0x0, symName: __ZNKSt3__112basic_stringIcNS_11char_traitsIcEENS_9allocatorIcEEE19__get_short_pointerB7v160006Ev, symObjAddr: 0x1098, symBinAddr: 0x100004FC0, symSize: 0x28 }
  - { offsetInCU: 0x8993, offset: 0x8993, size: 0x8, addend: 0x0, symName: __ZNKSt3__117__compressed_pairINS_12basic_stringIcNS_11char_traitsIcEENS_9allocatorIcEEE5__repES5_E5firstB7v160006Ev, symObjAddr: 0x10CC, symBinAddr: 0x100004FF4, symSize: 0x24 }
  - { offsetInCU: 0x89B7, offset: 0x89B7, size: 0x8, addend: 0x0, symName: __ZNKSt3__122__compressed_pair_elemINS_12basic_stringIcNS_11char_traitsIcEENS_9allocatorIcEEE5__repELi0ELb0EE5__getB7v160006Ev, symObjAddr: 0x10F0, symBinAddr: 0x100005018, symSize: 0x14 }
  - { offsetInCU: 0x89DB, offset: 0x89DB, size: 0x8, addend: 0x0, symName: __ZNSt3__114pointer_traitsIPKcE10pointer_toB7v160006ERS1_, symObjAddr: 0x1104, symBinAddr: 0x10000502C, symSize: 0x14 }
  - { offsetInCU: 0x89FD, offset: 0x89FD, size: 0x8, addend: 0x0, symName: __ZNSt3__119ostreambuf_iteratorIcNS_11char_traitsIcEEEC2B7v160006ERNS_13basic_ostreamIcS2_EE, symObjAddr: 0x1118, symBinAddr: 0x100005040, symSize: 0x68 }
  - { offsetInCU: 0x8A33, offset: 0x8A33, size: 0x8, addend: 0x0, symName: __ZNKSt3__19basic_iosIcNS_11char_traitsIcEEE5rdbufB7v160006Ev, symObjAddr: 0x1180, symBinAddr: 0x1000050A8, symSize: 0x24 }
  - { offsetInCU: 0x8A59, offset: 0x8A59, size: 0x8, addend: 0x0, symName: __ZNKSt3__18ios_base5rdbufB7v160006Ev, symObjAddr: 0x11A4, symBinAddr: 0x1000050CC, symSize: 0x18 }
  - { offsetInCU: 0x8A7D, offset: 0x8A7D, size: 0x8, addend: 0x0, symName: __ZNSt3__111char_traitsIcE11eq_int_typeEii, symObjAddr: 0x11BC, symBinAddr: 0x1000050E4, symSize: 0x28 }
  - { offsetInCU: 0x8AAE, offset: 0x8AAE, size: 0x8, addend: 0x0, symName: __ZNSt3__111char_traitsIcE3eofEv, symObjAddr: 0x11E4, symBinAddr: 0x10000510C, symSize: 0x8 }
  - { offsetInCU: 0x8AC0, offset: 0x8AC0, size: 0x8, addend: 0x0, symName: __ZNKSt3__19basic_iosIcNS_11char_traitsIcEEE5widenB7v160006Ec, symObjAddr: 0x11EC, symBinAddr: 0x100005114, symSize: 0x8C }
  - { offsetInCU: 0x8B2C, offset: 0x8B2C, size: 0x8, addend: 0x0, symName: __ZNKSt3__15ctypeIcE5widenB7v160006Ec, symObjAddr: 0x12A4, symBinAddr: 0x1000051CC, symSize: 0x38 }
  - { offsetInCU: 0x8B5F, offset: 0x8B5F, size: 0x8, addend: 0x0, symName: __ZNSt3__18ios_base8setstateB7v160006Ej, symObjAddr: 0x12DC, symBinAddr: 0x100005204, symSize: 0x34 }
  - { offsetInCU: 0x7B0, offset: 0x94A2, size: 0x8, addend: 0x0, symName: __ZN13LinearAlgebracoERNS_6MatrixE, symObjAddr: 0xBBC, symBinAddr: 0x100005D40, symSize: 0x1BC }
  - { offsetInCU: 0x82F, offset: 0x9521, size: 0x8, addend: 0x0, symName: __ZN13LinearAlgebraplERNS_6MatrixES1_, symObjAddr: 0xEC0, symBinAddr: 0x100006044, symSize: 0x1A4 }
  - { offsetInCU: 0x8A8, offset: 0x959A, size: 0x8, addend: 0x0, symName: __ZN13LinearAlgebramiERNS_6MatrixES1_, symObjAddr: 0x10E4, symBinAddr: 0x100006268, symSize: 0x1A4 }
  - { offsetInCU: 0x928, offset: 0x961A, size: 0x8, addend: 0x0, symName: __ZN13LinearAlgebramlERNS_6MatrixES1_, symObjAddr: 0x1308, symBinAddr: 0x10000648C, symSize: 0x224 }
  - { offsetInCU: 0xA01, offset: 0x96F3, size: 0x8, addend: 0x0, symName: __ZN13LinearAlgebramlERNS_6MatrixERd, symObjAddr: 0x15AC, symBinAddr: 0x100006730, symSize: 0x134 }
  - { offsetInCU: 0xA63, offset: 0x9755, size: 0x8, addend: 0x0, symName: __ZN13LinearAlgebralsERNSt3__113basic_ostreamIcNS0_11char_traitsIcEEEERNS_6MatrixE, symObjAddr: 0x17E8, symBinAddr: 0x10000696C, symSize: 0x320 }
  - { offsetInCU: 0xB07, offset: 0x97F9, size: 0x8, addend: 0x0, symName: __ZN13LinearAlgebra7InfNormERKNS_6MatrixE, symObjAddr: 0x1B74, symBinAddr: 0x100006CF8, symSize: 0xA0 }
  - { offsetInCU: 0xB70, offset: 0x9862, size: 0x8, addend: 0x0, symName: __ZN13LinearAlgebrarsERNSt3__113basic_istreamIcNS0_11char_traitsIcEEEERNS_6MatrixE, symObjAddr: 0x1DBC, symBinAddr: 0x100006F04, symSize: 0xF8 }
  - { offsetInCU: 0xC1A, offset: 0x990C, size: 0x8, addend: 0x0, symName: __ZN13LinearAlgebrangERNS_6MatrixE, symObjAddr: 0x1EB4, symBinAddr: 0x100006FFC, symSize: 0x12C }
  - { offsetInCU: 0xC69, offset: 0x995B, size: 0x8, addend: 0x0, symName: __ZN13LinearAlgebrapsERNS_6MatrixE, symObjAddr: 0x1FE0, symBinAddr: 0x100007128, symSize: 0x38 }
  - { offsetInCU: 0xC95, offset: 0x9987, size: 0x8, addend: 0x0, symName: __ZN13LinearAlgebramlERdRNS_6MatrixE, symObjAddr: 0x2018, symBinAddr: 0x100007160, symSize: 0x34 }
  - { offsetInCU: 0xCD2, offset: 0x99C4, size: 0x8, addend: 0x0, symName: __ZN13LinearAlgebramlERNS_6VectorERNS_6MatrixE, symObjAddr: 0x204C, symBinAddr: 0x100007194, symSize: 0x1D4 }
  - { offsetInCU: 0xD85, offset: 0x9A77, size: 0x8, addend: 0x0, symName: __ZN13LinearAlgebramlERNS_6MatrixERNS_6VectorE, symObjAddr: 0x2220, symBinAddr: 0x100007368, symSize: 0x1E8 }
  - { offsetInCU: 0xE38, offset: 0x9B2A, size: 0x8, addend: 0x0, symName: __ZN13LinearAlgebradvERNS_6VectorERNS_6MatrixE, symObjAddr: 0x319C, symBinAddr: 0x1000082E4, symSize: 0x1B4 }
  - { offsetInCU: 0xE94, offset: 0x9B86, size: 0x8, addend: 0x0, symName: __ZN13LinearAlgebra3detENS_6MatrixE, symObjAddr: 0x3350, symBinAddr: 0x100008498, symSize: 0x350 }
  - { offsetInCU: 0xF4B, offset: 0x9C3D, size: 0x8, addend: 0x0, symName: __ZN13LinearAlgebra3SumERNS_6MatrixE, symObjAddr: 0x36A0, symBinAddr: 0x1000087E8, symSize: 0x98 }
  - { offsetInCU: 0xFB4, offset: 0x9CA6, size: 0x8, addend: 0x0, symName: __ZN13LinearAlgebra7RowNormERKNS_6MatrixE, symObjAddr: 0x3738, symBinAddr: 0x100008880, symSize: 0xA0 }
  - { offsetInCU: 0x101D, offset: 0x9D0F, size: 0x8, addend: 0x0, symName: __ZN13LinearAlgebra7ColNormERNS_6MatrixE, symObjAddr: 0x3804, symBinAddr: 0x10000894C, symSize: 0x70 }
  - { offsetInCU: 0x67B1, offset: 0xF4A3, size: 0x8, addend: 0x0, symName: __ZNSt3__1lsB7v160006IcNS_11char_traitsIcEEEERNS_13basic_ostreamIT_T0_EES7_RKNS_8__iom_t6E, symObjAddr: 0x1B08, symBinAddr: 0x100006C8C, symSize: 0x40 }
  - { offsetInCU: 0x6800, offset: 0xF4F2, size: 0x8, addend: 0x0, symName: __ZNSt3__14setwB7v160006Ei, symObjAddr: 0x1B48, symBinAddr: 0x100006CCC, symSize: 0x2C }
  - { offsetInCU: 0x682E, offset: 0xF520, size: 0x8, addend: 0x0, symName: __ZNSt3__1lsB7v160006IcNS_11char_traitsIcEENS_9allocatorIcEEEERNS_13basic_ostreamIT_T0_EES9_RKNS_12basic_stringIS6_S7_T1_EE, symObjAddr: 0x1C58, symBinAddr: 0x100006DDC, symSize: 0x4C }
  - { offsetInCU: 0x6886, offset: 0xF578, size: 0x8, addend: 0x0, symName: __ZNSt3__1lsB7v160006IcNS_11char_traitsIcEEEERNS_13basic_ostreamIT_T0_EES7_RKNS_8__iom_t5E, symObjAddr: 0x1CE0, symBinAddr: 0x100006E28, symSize: 0x40 }
  - { offsetInCU: 0x68D2, offset: 0xF5C4, size: 0x8, addend: 0x0, symName: __ZNSt3__15fixedB7v160006ERNS_8ios_baseE, symObjAddr: 0x1D60, symBinAddr: 0x100006EA8, symSize: 0x30 }
  - { offsetInCU: 0x6900, offset: 0xF5F2, size: 0x8, addend: 0x0, symName: __ZNSt3__112setprecisionB7v160006Ei, symObjAddr: 0x1D90, symBinAddr: 0x100006ED8, symSize: 0x2C }
  - { offsetInCU: 0x692C, offset: 0xF61E, size: 0x8, addend: 0x0, symName: __ZNSt3__13maxB7v160006IlEERKT_S3_S3_, symObjAddr: 0x2838, symBinAddr: 0x100007980, symSize: 0x2C }
  - { offsetInCU: 0x696F, offset: 0xF661, size: 0x8, addend: 0x0, symName: __ZNSt3__13minB7v160006IlEERKT_S3_S3_, symObjAddr: 0x2864, symBinAddr: 0x1000079AC, symSize: 0x2C }
  - { offsetInCU: 0x6DD2, offset: 0xFAC4, size: 0x8, addend: 0x0, symName: __ZNSt3__13maxB7v160006IdEERKT_S3_S3_, symObjAddr: 0x37D8, symBinAddr: 0x100008920, symSize: 0x2C }
  - { offsetInCU: 0x6E15, offset: 0xFB07, size: 0x8, addend: 0x0, symName: __ZNSt3__119__debug_db_insert_cB7v160006INS_6vectorIN13LinearAlgebra6VectorENS_9allocatorIS3_EEEEEEvPT_, symObjAddr: 0x4410, symBinAddr: 0x100008B70, symSize: 0x10 }
  - { offsetInCU: 0x6E46, offset: 0xFB38, size: 0x8, addend: 0x0, symName: __ZNSt3__118__debug_db_erase_cB7v160006INS_6vectorIN13LinearAlgebra6VectorENS_9allocatorIS3_EEEEEEvPT_, symObjAddr: 0x46E8, symBinAddr: 0x100008E48, symSize: 0x10 }
  - { offsetInCU: 0x6E77, offset: 0xFB69, size: 0x8, addend: 0x0, symName: __ZNSt3__112__to_addressB7v160006IN13LinearAlgebra6VectorEEEPT_S4_, symObjAddr: 0x4804, symBinAddr: 0x100008F64, symSize: 0x14 }
  - { offsetInCU: 0x6EAC, offset: 0xFB9E, size: 0x8, addend: 0x0, symName: __ZNSt3__119__libcpp_deallocateB7v160006EPvmm, symObjAddr: 0x4980, symBinAddr: 0x1000090E0, symSize: 0x30 }
  - { offsetInCU: 0x6EF5, offset: 0xFBE7, size: 0x8, addend: 0x0, symName: __ZNSt3__127__do_deallocate_handle_sizeB7v160006IJEEEvPvmDpT_, symObjAddr: 0x49B0, symBinAddr: 0x100009110, symSize: 0x28 }
  - { offsetInCU: 0x6F35, offset: 0xFC27, size: 0x8, addend: 0x0, symName: __ZNSt3__124__libcpp_operator_deleteB7v160006IJPvEEEvDpT_, symObjAddr: 0x49D8, symBinAddr: 0x100009138, symSize: 0x24 }
  - { offsetInCU: 0x6F6D, offset: 0xFC5F, size: 0x8, addend: 0x0, symName: __ZNSt3__16fill_nB7v160006IPN13LinearAlgebra6VectorEmS2_EET_S4_T0_RKT1_, symObjAddr: 0x4A94, symBinAddr: 0x1000091F4, symSize: 0x44 }
  - { offsetInCU: 0x6FD0, offset: 0xFCC2, size: 0x8, addend: 0x0, symName: __ZNSt3__13minB7v160006ImEERKT_S3_S3_, symObjAddr: 0x4AD8, symBinAddr: 0x100009238, symSize: 0x2C }
  - { offsetInCU: 0x7013, offset: 0xFD05, size: 0x8, addend: 0x0, symName: __ZNSt3__125__debug_db_invalidate_allB7v160006INS_6vectorIN13LinearAlgebra6VectorENS_9allocatorIS3_EEEEEEvPT_, symObjAddr: 0x4E58, symBinAddr: 0x1000095B8, symSize: 0x10 }
  - { offsetInCU: 0x7044, offset: 0xFD36, size: 0x8, addend: 0x0, symName: __ZNSt3__18__fill_nB7v160006IPN13LinearAlgebra6VectorEmS2_EET_S4_T0_RKT1_, symObjAddr: 0x4E68, symBinAddr: 0x1000095C8, symSize: 0x6C }
  - { offsetInCU: 0x70A7, offset: 0xFD99, size: 0x8, addend: 0x0, symName: __ZNSt3__121__convert_to_integralB7v160006Em, symObjAddr: 0x4ED4, symBinAddr: 0x100009634, symSize: 0x14 }
  - { offsetInCU: 0x70D3, offset: 0xFDC5, size: 0x8, addend: 0x0, symName: __ZNSt3__13minB7v160006ImNS_6__lessImmEEEERKT_S5_S5_T0_, symObjAddr: 0x4EE8, symBinAddr: 0x100009648, symSize: 0x54 }
  - { offsetInCU: 0x7168, offset: 0xFE5A, size: 0x8, addend: 0x0, symName: __ZNSt3__119__allocate_at_leastB7v160006INS_9allocatorIN13LinearAlgebra6VectorEEEEENS_19__allocation_resultINS_16allocator_traitsIT_E7pointerEEERS7_m, symObjAddr: 0x52E4, symBinAddr: 0x100009A44, symSize: 0x40 }
  - { offsetInCU: 0x73B6, offset: 0x100A8, size: 0x8, addend: 0x0, symName: __ZNSt3__120__throw_length_errorB7v160006EPKc, symObjAddr: 0x54A4, symBinAddr: 0x100009C04, symSize: 0x64 }
  - { offsetInCU: 0x73DF, offset: 0x100D1, size: 0x8, addend: 0x0, symName: __ZNSt3__117__libcpp_allocateB7v160006Emm, symObjAddr: 0x5648, symBinAddr: 0x100009DA8, symSize: 0x28 }
  - { offsetInCU: 0x741C, offset: 0x1010E, size: 0x8, addend: 0x0, symName: __ZNSt3__121__libcpp_operator_newB7v160006IJmEEEPvDpT_, symObjAddr: 0x5670, symBinAddr: 0x100009DD0, symSize: 0x24 }
  - { offsetInCU: 0x7457, offset: 0x10149, size: 0x8, addend: 0x0, symName: __ZNSt3__13maxB7v160006ImEERKT_S3_S3_, symObjAddr: 0x5694, symBinAddr: 0x100009DF4, symSize: 0x2C }
  - { offsetInCU: 0x749A, offset: 0x1018C, size: 0x8, addend: 0x0, symName: __ZNSt3__13maxB7v160006ImNS_6__lessImmEEEERKT_S5_S5_T0_, symObjAddr: 0x56C0, symBinAddr: 0x100009E20, symSize: 0x54 }
  - { offsetInCU: 0x74F4, offset: 0x101E6, size: 0x8, addend: 0x0, symName: __ZNSt3__13maxB7v160006IlNS_6__lessIllEEEERKT_S5_S5_T0_, symObjAddr: 0x5920, symBinAddr: 0x100009F24, symSize: 0x54 }
  - { offsetInCU: 0x7589, offset: 0x1027B, size: 0x8, addend: 0x0, symName: __ZNSt3__13minB7v160006IlNS_6__lessIllEEEERKT_S5_S5_T0_, symObjAddr: 0x59A8, symBinAddr: 0x100009FAC, symSize: 0x54 }
  - { offsetInCU: 0x75E3, offset: 0x102D5, size: 0x8, addend: 0x0, symName: __ZNSt3__13maxB7v160006IdNS_6__lessIddEEEERKT_S5_S5_T0_, symObjAddr: 0x5A20, symBinAddr: 0x10000A024, symSize: 0x54 }
  - { offsetInCU: 0x7D3D, offset: 0x10A2F, size: 0x8, addend: 0x0, symName: __ZSt28__throw_bad_array_new_lengthB7v160006v, symObjAddr: 0x5614, symBinAddr: 0x100009D74, symSize: 0x34 }
  - { offsetInCU: 0x9F00, offset: 0x12BF2, size: 0x8, addend: 0x0, symName: __ZN13LinearAlgebra6Matrix5ErrorEPKc, symObjAddr: 0x0, symBinAddr: 0x10000525C, symSize: 0x44 }
  - { offsetInCU: 0x9F35, offset: 0x12C27, size: 0x8, addend: 0x0, symName: __ZN13LinearAlgebra6MatrixclEll, symObjAddr: 0x110, symBinAddr: 0x1000052A0, symSize: 0x38 }
  - { offsetInCU: 0x9F78, offset: 0x12C6A, size: 0x8, addend: 0x0, symName: __ZN13LinearAlgebra6MatrixixEl, symObjAddr: 0x148, symBinAddr: 0x1000052D8, symSize: 0x30 }
  - { offsetInCU: 0x9FAD, offset: 0x12C9F, size: 0x8, addend: 0x0, symName: __ZNSt3__16vectorIN13LinearAlgebra6VectorENS_9allocatorIS2_EEEixB7v160006Em, symObjAddr: 0x178, symBinAddr: 0x100005308, symSize: 0x2C }
  - { offsetInCU: 0x9FE2, offset: 0x12CD4, size: 0x8, addend: 0x0, symName: __ZNK13LinearAlgebra6MatrixixEl, symObjAddr: 0x1A4, symBinAddr: 0x100005334, symSize: 0x30 }
  - { offsetInCU: 0xA017, offset: 0x12D09, size: 0x8, addend: 0x0, symName: __ZNKSt3__16vectorIN13LinearAlgebra6VectorENS_9allocatorIS2_EEEixB7v160006Em, symObjAddr: 0x1D4, symBinAddr: 0x100005364, symSize: 0x2C }
  - { offsetInCU: 0xA04C, offset: 0x12D3E, size: 0x8, addend: 0x0, symName: __ZN13LinearAlgebra6MatrixC2Ev, symObjAddr: 0x200, symBinAddr: 0x100005390, symSize: 0x74 }
  - { offsetInCU: 0xA077, offset: 0x12D69, size: 0x8, addend: 0x0, symName: __ZNSt3__16vectorIN13LinearAlgebra6VectorENS_9allocatorIS2_EEEC1B7v160006Ev, symObjAddr: 0x274, symBinAddr: 0x100005404, symSize: 0x2C }
  - { offsetInCU: 0xA09F, offset: 0x12D91, size: 0x8, addend: 0x0, symName: __ZN13LinearAlgebra6Matrix5SetupEll, symObjAddr: 0x2A0, symBinAddr: 0x100005430, symSize: 0xC0 }
  - { offsetInCU: 0xA0E2, offset: 0x12DD4, size: 0x8, addend: 0x0, symName: __ZNSt3__16vectorIN13LinearAlgebra6VectorENS_9allocatorIS2_EEED1B7v160006Ev, symObjAddr: 0x360, symBinAddr: 0x1000054F0, symSize: 0x2C }
  - { offsetInCU: 0xA10A, offset: 0x12DFC, size: 0x8, addend: 0x0, symName: __ZN13LinearAlgebra6MatrixC1Ev, symObjAddr: 0x398, symBinAddr: 0x10000551C, symSize: 0x2C }
  - { offsetInCU: 0xA135, offset: 0x12E27, size: 0x8, addend: 0x0, symName: __ZN13LinearAlgebra6MatrixC2Ell, symObjAddr: 0x3C4, symBinAddr: 0x100005548, symSize: 0x7C }
  - { offsetInCU: 0xA17C, offset: 0x12E6E, size: 0x8, addend: 0x0, symName: __ZN13LinearAlgebra6MatrixC1Ell, symObjAddr: 0x440, symBinAddr: 0x1000055C4, symSize: 0x3C }
  - { offsetInCU: 0xA1C3, offset: 0x12EB5, size: 0x8, addend: 0x0, symName: __ZN13LinearAlgebra6MatrixC2ERKS0_, symObjAddr: 0x47C, symBinAddr: 0x100005600, symSize: 0x94 }
  - { offsetInCU: 0xA1FC, offset: 0x12EEE, size: 0x8, addend: 0x0, symName: __ZN13LinearAlgebra6Matrix5SetupERKS0_, symObjAddr: 0x510, symBinAddr: 0x100005694, symSize: 0x150 }
  - { offsetInCU: 0xA24D, offset: 0x12F3F, size: 0x8, addend: 0x0, symName: __ZN13LinearAlgebra6MatrixC1ERKS0_, symObjAddr: 0x660, symBinAddr: 0x1000057E4, symSize: 0x34 }
  - { offsetInCU: 0xA286, offset: 0x12F78, size: 0x8, addend: 0x0, symName: __ZN13LinearAlgebra6MatrixC2ERS0_, symObjAddr: 0x694, symBinAddr: 0x100005818, symSize: 0x94 }
  - { offsetInCU: 0xA2BF, offset: 0x12FB1, size: 0x8, addend: 0x0, symName: __ZN13LinearAlgebra6MatrixC1ERS0_, symObjAddr: 0x728, symBinAddr: 0x1000058AC, symSize: 0x34 }
  - { offsetInCU: 0xA2F8, offset: 0x12FEA, size: 0x8, addend: 0x0, symName: __ZN13LinearAlgebra6MatrixC2ERKNSt3__16vectorINS_6VectorENS1_9allocatorIS3_EEEE, symObjAddr: 0x75C, symBinAddr: 0x1000058E0, symSize: 0x140 }
  - { offsetInCU: 0xA345, offset: 0x13037, size: 0x8, addend: 0x0, symName: __ZNKSt3__16vectorIN13LinearAlgebra6VectorENS_9allocatorIS2_EEE4sizeB7v160006Ev, symObjAddr: 0x89C, symBinAddr: 0x100005A20, symSize: 0x28 }
  - { offsetInCU: 0xA369, offset: 0x1305B, size: 0x8, addend: 0x0, symName: __ZN13LinearAlgebra6MatrixC1ERKNSt3__16vectorINS_6VectorENS1_9allocatorIS3_EEEE, symObjAddr: 0x8C4, symBinAddr: 0x100005A48, symSize: 0x34 }
  - { offsetInCU: 0xA3A2, offset: 0x13094, size: 0x8, addend: 0x0, symName: __ZN13LinearAlgebra6MatrixD2Ev, symObjAddr: 0x8F8, symBinAddr: 0x100005A7C, symSize: 0x30 }
  - { offsetInCU: 0xA3CD, offset: 0x130BF, size: 0x8, addend: 0x0, symName: __ZN13LinearAlgebra6MatrixD1Ev, symObjAddr: 0x928, symBinAddr: 0x100005AAC, symSize: 0x2C }
  - { offsetInCU: 0xA3F8, offset: 0x130EA, size: 0x8, addend: 0x0, symName: __ZNSt3__16vectorIN13LinearAlgebra6VectorENS_9allocatorIS2_EEE6assignEmRKS2_, symObjAddr: 0x954, symBinAddr: 0x100005AD8, symSize: 0x118 }
  - { offsetInCU: 0xA459, offset: 0x1314B, size: 0x8, addend: 0x0, symName: __ZN13LinearAlgebra6Matrix6ResizeEll, symObjAddr: 0xA6C, symBinAddr: 0x100005BF0, symSize: 0x34 }
  - { offsetInCU: 0xA49C, offset: 0x1318E, size: 0x8, addend: 0x0, symName: __ZN13LinearAlgebra6Matrix4FillERNS_6VectorE, symObjAddr: 0xAA0, symBinAddr: 0x100005C24, symSize: 0x104 }
  - { offsetInCU: 0xA4FB, offset: 0x131ED, size: 0x8, addend: 0x0, symName: __ZNK13LinearAlgebra6Vector4SizeEv, symObjAddr: 0xBA4, symBinAddr: 0x100005D28, symSize: 0x18 }
  - { offsetInCU: 0xA51F, offset: 0x13211, size: 0x8, addend: 0x0, symName: __ZN13LinearAlgebra6MatrixaSERS0_, symObjAddr: 0xD78, symBinAddr: 0x100005EFC, symSize: 0x64 }
  - { offsetInCU: 0xA554, offset: 0x13246, size: 0x8, addend: 0x0, symName: __ZN13LinearAlgebra6MatrixaSERKS0_, symObjAddr: 0xDDC, symBinAddr: 0x100005F60, symSize: 0x64 }
  - { offsetInCU: 0xA589, offset: 0x1327B, size: 0x8, addend: 0x0, symName: __ZN13LinearAlgebra6MatrixpLERS0_, symObjAddr: 0xE40, symBinAddr: 0x100005FC4, symSize: 0x80 }
  - { offsetInCU: 0xA5BE, offset: 0x132B0, size: 0x8, addend: 0x0, symName: __ZN13LinearAlgebra6MatrixmIERS0_, symObjAddr: 0x1064, symBinAddr: 0x1000061E8, symSize: 0x80 }
  - { offsetInCU: 0xA5F3, offset: 0x132E5, size: 0x8, addend: 0x0, symName: __ZN13LinearAlgebra6MatrixmLERS0_, symObjAddr: 0x1288, symBinAddr: 0x10000640C, symSize: 0x80 }
  - { offsetInCU: 0xA628, offset: 0x1331A, size: 0x8, addend: 0x0, symName: __ZN13LinearAlgebra6MatrixmLERd, symObjAddr: 0x152C, symBinAddr: 0x1000066B0, symSize: 0x80 }
  - { offsetInCU: 0xA65D, offset: 0x1334F, size: 0x8, addend: 0x0, symName: __ZN13LinearAlgebra6Matrix13PrintNonzerosERNSt3__113basic_ostreamIcNS1_11char_traitsIcEEEE, symObjAddr: 0x16E0, symBinAddr: 0x100006864, symSize: 0x108 }
  - { offsetInCU: 0xA6CA, offset: 0x133BC, size: 0x8, addend: 0x0, symName: __ZNSt3__18ios_base9precisionB7v160006El, symObjAddr: 0x1C14, symBinAddr: 0x100006D98, symSize: 0x2C }
  - { offsetInCU: 0xA70D, offset: 0x133FF, size: 0x8, addend: 0x0, symName: __Z3absB7v160006d, symObjAddr: 0x1C40, symBinAddr: 0x100006DC4, symSize: 0x18 }
  - { offsetInCU: 0xA73A, offset: 0x1342C, size: 0x8, addend: 0x0, symName: __ZNSt3__113basic_ostreamIcNS_11char_traitsIcEEElsB7v160006EPFRNS_8ios_baseES5_E, symObjAddr: 0x1D20, symBinAddr: 0x100006E68, symSize: 0x40 }
  - { offsetInCU: 0xA76C, offset: 0x1345E, size: 0x8, addend: 0x0, symName: __ZN13LinearAlgebra6Vector15SetColumnVectorEv, symObjAddr: 0x2408, symBinAddr: 0x100007550, symSize: 0x1C }
  - { offsetInCU: 0xA790, offset: 0x13482, size: 0x8, addend: 0x0, symName: __ZN13LinearAlgebra6Matrix9RandomizeEdddi, symObjAddr: 0x2424, symBinAddr: 0x10000756C, symSize: 0x1A8 }
  - { offsetInCU: 0xA886, offset: 0x13578, size: 0x8, addend: 0x0, symName: __ZN13LinearAlgebra6Matrix8MakeZeroEv, symObjAddr: 0x25CC, symBinAddr: 0x100007714, symSize: 0x6C }
  - { offsetInCU: 0xA8CB, offset: 0x135BD, size: 0x8, addend: 0x0, symName: __ZN13LinearAlgebra6Matrix13RandomizeBandEdli, symObjAddr: 0x2638, symBinAddr: 0x100007780, symSize: 0x200 }
  - { offsetInCU: 0xA9A4, offset: 0x13696, size: 0x8, addend: 0x0, symName: __ZN13LinearAlgebra6Matrix12MakeIdentityEv, symObjAddr: 0x2890, symBinAddr: 0x1000079D8, symSize: 0x80 }
  - { offsetInCU: 0xA9E9, offset: 0x136DB, size: 0x8, addend: 0x0, symName: __ZN13LinearAlgebra6Matrix7RowSwapEll, symObjAddr: 0x2910, symBinAddr: 0x100007A58, symSize: 0xE8 }
  - { offsetInCU: 0xAA69, offset: 0x1375B, size: 0x8, addend: 0x0, symName: __ZN13LinearAlgebra6Matrix8SolveForENS_6VectorE, symObjAddr: 0x29F8, symBinAddr: 0x100007B40, symSize: 0x704 }
  - { offsetInCU: 0xAB6F, offset: 0x13861, size: 0x8, addend: 0x0, symName: __ZN13LinearAlgebra6Vector4SwapEll, symObjAddr: 0x30FC, symBinAddr: 0x100008244, symSize: 0x8C }
  - { offsetInCU: 0xABBD, offset: 0x138AF, size: 0x8, addend: 0x0, symName: __ZNSt3__114numeric_limitsIdE6lowestB7v160006Ev, symObjAddr: 0x3188, symBinAddr: 0x1000082D0, symSize: 0x14 }
  - { offsetInCU: 0xABD1, offset: 0x138C3, size: 0x8, addend: 0x0, symName: __ZNSt3__18__iom_t6C1B7v160006Ei, symObjAddr: 0x3874, symBinAddr: 0x1000089BC, symSize: 0x34 }
  - { offsetInCU: 0xAC07, offset: 0x138F9, size: 0x8, addend: 0x0, symName: __ZNSt3__18__iom_t6C2B7v160006Ei, symObjAddr: 0x38A8, symBinAddr: 0x1000089F0, symSize: 0x20 }
  - { offsetInCU: 0xAC3D, offset: 0x1392F, size: 0x8, addend: 0x0, symName: __ZNSt3__18ios_base4setfB7v160006Ejj, symObjAddr: 0x38C8, symBinAddr: 0x100008A10, symSize: 0x5C }
  - { offsetInCU: 0xAC90, offset: 0x13982, size: 0x8, addend: 0x0, symName: __ZNSt3__18ios_base6unsetfB7v160006Ej, symObjAddr: 0x3924, symBinAddr: 0x100008A6C, symSize: 0x28 }
  - { offsetInCU: 0xACC5, offset: 0x139B7, size: 0x8, addend: 0x0, symName: __ZNSt3__18__iom_t5C1B7v160006Ei, symObjAddr: 0x394C, symBinAddr: 0x100008A94, symSize: 0x34 }
  - { offsetInCU: 0xACFB, offset: 0x139ED, size: 0x8, addend: 0x0, symName: __ZNSt3__18__iom_t5C2B7v160006Ei, symObjAddr: 0x3980, symBinAddr: 0x100008AC8, symSize: 0x20 }
  - { offsetInCU: 0xAD4F, offset: 0x13A41, size: 0x8, addend: 0x0, symName: __ZNSt3__16vectorIN13LinearAlgebra6VectorENS_9allocatorIS2_EEEC2B7v160006Ev, symObjAddr: 0x4388, symBinAddr: 0x100008AE8, symSize: 0x4C }
  - { offsetInCU: 0xAD81, offset: 0x13A73, size: 0x8, addend: 0x0, symName: __ZNSt3__117__compressed_pairIPN13LinearAlgebra6VectorENS_9allocatorIS2_EEEC1B7v160006IDnNS_18__default_init_tagEEEOT_OT0_, symObjAddr: 0x43D4, symBinAddr: 0x100008B34, symSize: 0x3C }
  - { offsetInCU: 0xADD7, offset: 0x13AC9, size: 0x8, addend: 0x0, symName: __ZNSt3__117__compressed_pairIPN13LinearAlgebra6VectorENS_9allocatorIS2_EEEC2B7v160006IDnNS_18__default_init_tagEEEOT_OT0_, symObjAddr: 0x4420, symBinAddr: 0x100008B80, symSize: 0x40 }
  - { offsetInCU: 0xAE2D, offset: 0x13B1F, size: 0x8, addend: 0x0, symName: __ZNSt3__122__compressed_pair_elemIPN13LinearAlgebra6VectorELi0ELb0EEC2B7v160006IDnvEEOT_, symObjAddr: 0x4460, symBinAddr: 0x100008BC0, symSize: 0x1C }
  - { offsetInCU: 0xAE6E, offset: 0x13B60, size: 0x8, addend: 0x0, symName: __ZNSt3__122__compressed_pair_elemINS_9allocatorIN13LinearAlgebra6VectorEEELi1ELb1EEC2B7v160006ENS_18__default_init_tagE, symObjAddr: 0x447C, symBinAddr: 0x100008BDC, symSize: 0x2C }
  - { offsetInCU: 0xAEA0, offset: 0x13B92, size: 0x8, addend: 0x0, symName: __ZNSt3__19allocatorIN13LinearAlgebra6VectorEEC2B7v160006Ev, symObjAddr: 0x44A8, symBinAddr: 0x100008C08, symSize: 0x2C }
  - { offsetInCU: 0xAEC8, offset: 0x13BBA, size: 0x8, addend: 0x0, symName: __ZNSt3__116__non_trivial_ifILb1ENS_9allocatorIN13LinearAlgebra6VectorEEEEC2B7v160006Ev, symObjAddr: 0x44D4, symBinAddr: 0x100008C34, symSize: 0x14 }
  - { offsetInCU: 0xAEF0, offset: 0x13BE2, size: 0x8, addend: 0x0, symName: __ZNSt3__16vectorIN13LinearAlgebra6VectorENS_9allocatorIS2_EEED2B7v160006Ev, symObjAddr: 0x44E8, symBinAddr: 0x100008C48, symSize: 0x3C }
  - { offsetInCU: 0xAF18, offset: 0x13C0A, size: 0x8, addend: 0x0, symName: __ZNSt3__16vectorIN13LinearAlgebra6VectorENS_9allocatorIS2_EEE16__destroy_vectorC1ERS5_, symObjAddr: 0x4524, symBinAddr: 0x100008C84, symSize: 0x34 }
  - { offsetInCU: 0xAF4F, offset: 0x13C41, size: 0x8, addend: 0x0, symName: __ZNSt3__16vectorIN13LinearAlgebra6VectorENS_9allocatorIS2_EEE16__destroy_vectorclB7v160006Ev, symObjAddr: 0x4558, symBinAddr: 0x100008CB8, symSize: 0x9C }
  - { offsetInCU: 0xAF73, offset: 0x13C65, size: 0x8, addend: 0x0, symName: __ZNSt3__16vectorIN13LinearAlgebra6VectorENS_9allocatorIS2_EEE16__destroy_vectorC2ERS5_, symObjAddr: 0x45F4, symBinAddr: 0x100008D54, symSize: 0x20 }
  - { offsetInCU: 0xAFAA, offset: 0x13C9C, size: 0x8, addend: 0x0, symName: __ZNKSt3__16vectorIN13LinearAlgebra6VectorENS_9allocatorIS2_EEE17__annotate_deleteB7v160006Ev, symObjAddr: 0x4614, symBinAddr: 0x100008D74, symSize: 0xD4 }
  - { offsetInCU: 0xAFCE, offset: 0x13CC0, size: 0x8, addend: 0x0, symName: __ZNSt3__16vectorIN13LinearAlgebra6VectorENS_9allocatorIS2_EEE7__clearB7v160006Ev, symObjAddr: 0x46F8, symBinAddr: 0x100008E58, symSize: 0x28 }
  - { offsetInCU: 0xAFF2, offset: 0x13CE4, size: 0x8, addend: 0x0, symName: __ZNSt3__116allocator_traitsINS_9allocatorIN13LinearAlgebra6VectorEEEE10deallocateB7v160006ERS4_PS3_m, symObjAddr: 0x4720, symBinAddr: 0x100008E80, symSize: 0x34 }
  - { offsetInCU: 0xB033, offset: 0x13D25, size: 0x8, addend: 0x0, symName: __ZNSt3__16vectorIN13LinearAlgebra6VectorENS_9allocatorIS2_EEE7__allocB7v160006Ev, symObjAddr: 0x4754, symBinAddr: 0x100008EB4, symSize: 0x28 }
  - { offsetInCU: 0xB057, offset: 0x13D49, size: 0x8, addend: 0x0, symName: __ZNKSt3__16vectorIN13LinearAlgebra6VectorENS_9allocatorIS2_EEE8capacityB7v160006Ev, symObjAddr: 0x477C, symBinAddr: 0x100008EDC, symSize: 0x40 }
  - { offsetInCU: 0xB07B, offset: 0x13D6D, size: 0x8, addend: 0x0, symName: __ZNKSt3__16vectorIN13LinearAlgebra6VectorENS_9allocatorIS2_EEE31__annotate_contiguous_containerB7v160006EPKvS7_S7_S7_, symObjAddr: 0x47BC, symBinAddr: 0x100008F1C, symSize: 0x20 }
  - { offsetInCU: 0xB0CF, offset: 0x13DC1, size: 0x8, addend: 0x0, symName: __ZNKSt3__16vectorIN13LinearAlgebra6VectorENS_9allocatorIS2_EEE4dataB7v160006Ev, symObjAddr: 0x47DC, symBinAddr: 0x100008F3C, symSize: 0x28 }
  - { offsetInCU: 0xB0F3, offset: 0x13DE5, size: 0x8, addend: 0x0, symName: __ZNSt3__16vectorIN13LinearAlgebra6VectorENS_9allocatorIS2_EEE22__base_destruct_at_endB7v160006EPS2_, symObjAddr: 0x4818, symBinAddr: 0x100008F78, symSize: 0xA0 }
  - { offsetInCU: 0xB135, offset: 0x13E27, size: 0x8, addend: 0x0, symName: __ZNSt3__116allocator_traitsINS_9allocatorIN13LinearAlgebra6VectorEEEE7destroyB7v160006IS3_vEEvRS4_PT_, symObjAddr: 0x48B8, symBinAddr: 0x100009018, symSize: 0x2C }
  - { offsetInCU: 0xB172, offset: 0x13E64, size: 0x8, addend: 0x0, symName: __ZNSt3__19allocatorIN13LinearAlgebra6VectorEE7destroyB7v160006EPS2_, symObjAddr: 0x48E4, symBinAddr: 0x100009044, symSize: 0x28 }
  - { offsetInCU: 0xB1A4, offset: 0x13E96, size: 0x8, addend: 0x0, symName: __ZNSt3__19allocatorIN13LinearAlgebra6VectorEE10deallocateB7v160006EPS2_m, symObjAddr: 0x490C, symBinAddr: 0x10000906C, symSize: 0x74 }
  - { offsetInCU: 0xB1E4, offset: 0x13ED6, size: 0x8, addend: 0x0, symName: __ZNSt3__117__compressed_pairIPN13LinearAlgebra6VectorENS_9allocatorIS2_EEE6secondB7v160006Ev, symObjAddr: 0x49FC, symBinAddr: 0x10000915C, symSize: 0x24 }
  - { offsetInCU: 0xB208, offset: 0x13EFA, size: 0x8, addend: 0x0, symName: __ZNSt3__122__compressed_pair_elemINS_9allocatorIN13LinearAlgebra6VectorEEELi1ELb1EE5__getB7v160006Ev, symObjAddr: 0x4A20, symBinAddr: 0x100009180, symSize: 0x14 }
  - { offsetInCU: 0xB22C, offset: 0x13F1E, size: 0x8, addend: 0x0, symName: __ZNKSt3__16vectorIN13LinearAlgebra6VectorENS_9allocatorIS2_EEE9__end_capB7v160006Ev, symObjAddr: 0x4A34, symBinAddr: 0x100009194, symSize: 0x28 }
  - { offsetInCU: 0xB250, offset: 0x13F42, size: 0x8, addend: 0x0, symName: __ZNKSt3__117__compressed_pairIPN13LinearAlgebra6VectorENS_9allocatorIS2_EEE5firstB7v160006Ev, symObjAddr: 0x4A5C, symBinAddr: 0x1000091BC, symSize: 0x24 }
  - { offsetInCU: 0xB274, offset: 0x13F66, size: 0x8, addend: 0x0, symName: __ZNKSt3__122__compressed_pair_elemIPN13LinearAlgebra6VectorELi0ELb0EE5__getB7v160006Ev, symObjAddr: 0x4A80, symBinAddr: 0x1000091E0, symSize: 0x14 }
  - { offsetInCU: 0xB298, offset: 0x13F8A, size: 0x8, addend: 0x0, symName: __ZNSt3__16vectorIN13LinearAlgebra6VectorENS_9allocatorIS2_EEE18__construct_at_endEmRKS2_, symObjAddr: 0x4B04, symBinAddr: 0x100009264, symSize: 0xD8 }
  - { offsetInCU: 0xB317, offset: 0x14009, size: 0x8, addend: 0x0, symName: __ZNSt3__16vectorIN13LinearAlgebra6VectorENS_9allocatorIS2_EEE17__destruct_at_endB7v160006EPS2_, symObjAddr: 0x4BDC, symBinAddr: 0x10000933C, symSize: 0x88 }
  - { offsetInCU: 0xB359, offset: 0x1404B, size: 0x8, addend: 0x0, symName: __ZNSt3__16vectorIN13LinearAlgebra6VectorENS_9allocatorIS2_EEE13__vdeallocateEv, symObjAddr: 0x4C64, symBinAddr: 0x1000093C4, symSize: 0x8C }
  - { offsetInCU: 0xB37F, offset: 0x14071, size: 0x8, addend: 0x0, symName: __ZNSt3__16vectorIN13LinearAlgebra6VectorENS_9allocatorIS2_EEE11__vallocateB7v160006Em, symObjAddr: 0x4CF0, symBinAddr: 0x100009450, symSize: 0xB4 }
  - { offsetInCU: 0xB3C1, offset: 0x140B3, size: 0x8, addend: 0x0, symName: __ZNKSt3__16vectorIN13LinearAlgebra6VectorENS_9allocatorIS2_EEE11__recommendB7v160006Em, symObjAddr: 0x4DA4, symBinAddr: 0x100009504, symSize: 0xB4 }
  - { offsetInCU: 0xB428, offset: 0x1411A, size: 0x8, addend: 0x0, symName: __ZNKSt3__16__lessImmEclB7v160006ERKmS3_, symObjAddr: 0x4F3C, symBinAddr: 0x10000969C, symSize: 0x34 }
  - { offsetInCU: 0xB481, offset: 0x14173, size: 0x8, addend: 0x0, symName: __ZNSt3__16vectorIN13LinearAlgebra6VectorENS_9allocatorIS2_EEE21_ConstructTransactionC1B7v160006ERS5_m, symObjAddr: 0x4F70, symBinAddr: 0x1000096D0, symSize: 0x3C }
  - { offsetInCU: 0xB4C7, offset: 0x141B9, size: 0x8, addend: 0x0, symName: __ZNSt3__116allocator_traitsINS_9allocatorIN13LinearAlgebra6VectorEEEE9constructB7v160006IS3_JRKS3_EvEEvRS4_PT_DpOT0_, symObjAddr: 0x4FAC, symBinAddr: 0x10000970C, symSize: 0x34 }
  - { offsetInCU: 0xB520, offset: 0x14212, size: 0x8, addend: 0x0, symName: __ZNSt3__16vectorIN13LinearAlgebra6VectorENS_9allocatorIS2_EEE21_ConstructTransactionD1B7v160006Ev, symObjAddr: 0x4FE0, symBinAddr: 0x100009740, symSize: 0x2C }
  - { offsetInCU: 0xB548, offset: 0x1423A, size: 0x8, addend: 0x0, symName: __ZNSt3__16vectorIN13LinearAlgebra6VectorENS_9allocatorIS2_EEE21_ConstructTransactionC2B7v160006ERS5_m, symObjAddr: 0x500C, symBinAddr: 0x10000976C, symSize: 0x4C }
  - { offsetInCU: 0xB58E, offset: 0x14280, size: 0x8, addend: 0x0, symName: __ZNSt3__19allocatorIN13LinearAlgebra6VectorEE9constructB7v160006IS2_JRKS2_EEEvPT_DpOT0_, symObjAddr: 0x5058, symBinAddr: 0x1000097B8, symSize: 0x30 }
  - { offsetInCU: 0xB5E4, offset: 0x142D6, size: 0x8, addend: 0x0, symName: __ZNSt3__16vectorIN13LinearAlgebra6VectorENS_9allocatorIS2_EEE21_ConstructTransactionD2B7v160006Ev, symObjAddr: 0x5088, symBinAddr: 0x1000097E8, symSize: 0x20 }
  - { offsetInCU: 0xB60C, offset: 0x142FE, size: 0x8, addend: 0x0, symName: __ZNSt3__16vectorIN13LinearAlgebra6VectorENS_9allocatorIS2_EEE27__invalidate_iterators_pastB7v160006EPS2_, symObjAddr: 0x50A8, symBinAddr: 0x100009808, symSize: 0x14 }
  - { offsetInCU: 0xB641, offset: 0x14333, size: 0x8, addend: 0x0, symName: __ZNKSt3__16vectorIN13LinearAlgebra6VectorENS_9allocatorIS2_EEE17__annotate_shrinkB7v160006Em, symObjAddr: 0x50BC, symBinAddr: 0x10000981C, symSize: 0xD0 }
  - { offsetInCU: 0xB674, offset: 0x14366, size: 0x8, addend: 0x0, symName: __ZNSt3__16vectorIN13LinearAlgebra6VectorENS_9allocatorIS2_EEE5clearB7v160006Ev, symObjAddr: 0x518C, symBinAddr: 0x1000098EC, symSize: 0x68 }
  - { offsetInCU: 0xB6A7, offset: 0x14399, size: 0x8, addend: 0x0, symName: __ZNSt3__16vectorIN13LinearAlgebra6VectorENS_9allocatorIS2_EEE9__end_capB7v160006Ev, symObjAddr: 0x51F4, symBinAddr: 0x100009954, symSize: 0x28 }
  - { offsetInCU: 0xB6CB, offset: 0x143BD, size: 0x8, addend: 0x0, symName: __ZNSt3__117__compressed_pairIPN13LinearAlgebra6VectorENS_9allocatorIS2_EEE5firstB7v160006Ev, symObjAddr: 0x521C, symBinAddr: 0x10000997C, symSize: 0x24 }
  - { offsetInCU: 0xB6EF, offset: 0x143E1, size: 0x8, addend: 0x0, symName: __ZNSt3__122__compressed_pair_elemIPN13LinearAlgebra6VectorELi0ELb0EE5__getB7v160006Ev, symObjAddr: 0x5240, symBinAddr: 0x1000099A0, symSize: 0x14 }
  - { offsetInCU: 0xB713, offset: 0x14405, size: 0x8, addend: 0x0, symName: __ZNKSt3__16vectorIN13LinearAlgebra6VectorENS_9allocatorIS2_EEE8max_sizeEv, symObjAddr: 0x5254, symBinAddr: 0x1000099B4, symSize: 0x74 }
  - { offsetInCU: 0xB739, offset: 0x1442B, size: 0x8, addend: 0x0, symName: __ZNKSt3__16vectorIN13LinearAlgebra6VectorENS_9allocatorIS2_EEE20__throw_length_errorB7v160006Ev, symObjAddr: 0x52C8, symBinAddr: 0x100009A28, symSize: 0x1C }
  - { offsetInCU: 0xB75D, offset: 0x1444F, size: 0x8, addend: 0x0, symName: __ZNKSt3__16vectorIN13LinearAlgebra6VectorENS_9allocatorIS2_EEE14__annotate_newB7v160006Em, symObjAddr: 0x5324, symBinAddr: 0x100009A84, symSize: 0xC8 }
  - { offsetInCU: 0xB79A, offset: 0x1448C, size: 0x8, addend: 0x0, symName: __ZNSt3__116allocator_traitsINS_9allocatorIN13LinearAlgebra6VectorEEEE8max_sizeB7v160006IS4_vEEmRKS4_, symObjAddr: 0x53EC, symBinAddr: 0x100009B4C, symSize: 0x24 }
  - { offsetInCU: 0xB7C8, offset: 0x144BA, size: 0x8, addend: 0x0, symName: __ZNKSt3__16vectorIN13LinearAlgebra6VectorENS_9allocatorIS2_EEE7__allocB7v160006Ev, symObjAddr: 0x5410, symBinAddr: 0x100009B70, symSize: 0x28 }
  - { offsetInCU: 0xB7EC, offset: 0x144DE, size: 0x8, addend: 0x0, symName: __ZNSt3__114numeric_limitsIlE3maxB7v160006Ev, symObjAddr: 0x5438, symBinAddr: 0x100009B98, symSize: 0x14 }
  - { offsetInCU: 0xB800, offset: 0x144F2, size: 0x8, addend: 0x0, symName: __ZNKSt3__19allocatorIN13LinearAlgebra6VectorEE8max_sizeB7v160006Ev, symObjAddr: 0x544C, symBinAddr: 0x100009BAC, symSize: 0x18 }
  - { offsetInCU: 0xB824, offset: 0x14516, size: 0x8, addend: 0x0, symName: __ZNKSt3__117__compressed_pairIPN13LinearAlgebra6VectorENS_9allocatorIS2_EEE6secondB7v160006Ev, symObjAddr: 0x5464, symBinAddr: 0x100009BC4, symSize: 0x24 }
  - { offsetInCU: 0xB848, offset: 0x1453A, size: 0x8, addend: 0x0, symName: __ZNKSt3__122__compressed_pair_elemINS_9allocatorIN13LinearAlgebra6VectorEEELi1ELb1EE5__getB7v160006Ev, symObjAddr: 0x5488, symBinAddr: 0x100009BE8, symSize: 0x14 }
  - { offsetInCU: 0xB86C, offset: 0x1455E, size: 0x8, addend: 0x0, symName: __ZNSt3__123__libcpp_numeric_limitsIlLb1EE3maxB7v160006Ev, symObjAddr: 0x549C, symBinAddr: 0x100009BFC, symSize: 0x8 }
  - { offsetInCU: 0xB87F, offset: 0x14571, size: 0x8, addend: 0x0, symName: __ZNSt12length_errorC1B7v160006EPKc, symObjAddr: 0x5508, symBinAddr: 0x100009C68, symSize: 0x34 }
  - { offsetInCU: 0xB8B5, offset: 0x145A7, size: 0x8, addend: 0x0, symName: __ZNSt12length_errorC2B7v160006EPKc, symObjAddr: 0x553C, symBinAddr: 0x100009C9C, symSize: 0x4C }
  - { offsetInCU: 0xB8EB, offset: 0x145DD, size: 0x8, addend: 0x0, symName: __ZNSt3__19allocatorIN13LinearAlgebra6VectorEE8allocateB7v160006Em, symObjAddr: 0x5588, symBinAddr: 0x100009CE8, symSize: 0x8C }
  - { offsetInCU: 0xB91D, offset: 0x1460F, size: 0x8, addend: 0x0, symName: __ZNKSt3__112basic_stringIcNS_11char_traitsIcEENS_9allocatorIcEEE4sizeB7v160006Ev, symObjAddr: 0x5870, symBinAddr: 0x100009E74, symSize: 0x54 }
  - { offsetInCU: 0xB941, offset: 0x14633, size: 0x8, addend: 0x0, symName: __ZNKSt3__112basic_stringIcNS_11char_traitsIcEENS_9allocatorIcEEE15__get_long_sizeB7v160006Ev, symObjAddr: 0x58C4, symBinAddr: 0x100009EC8, symSize: 0x28 }
  - { offsetInCU: 0xB965, offset: 0x14657, size: 0x8, addend: 0x0, symName: __ZNKSt3__112basic_stringIcNS_11char_traitsIcEENS_9allocatorIcEEE16__get_short_sizeB7v160006Ev, symObjAddr: 0x58EC, symBinAddr: 0x100009EF0, symSize: 0x34 }
  - { offsetInCU: 0xB99D, offset: 0x1468F, size: 0x8, addend: 0x0, symName: __ZNKSt3__16__lessIllEclB7v160006ERKlS3_, symObjAddr: 0x5974, symBinAddr: 0x100009F78, symSize: 0x34 }
  - { offsetInCU: 0xB9DD, offset: 0x146CF, size: 0x8, addend: 0x0, symName: __ZNSt3__123__libcpp_numeric_limitsIdLb1EE6lowestB7v160006Ev, symObjAddr: 0x59FC, symBinAddr: 0x10000A000, symSize: 0x18 }
  - { offsetInCU: 0xB9F1, offset: 0x146E3, size: 0x8, addend: 0x0, symName: __ZNSt3__123__libcpp_numeric_limitsIdLb1EE3maxB7v160006Ev, symObjAddr: 0x5A14, symBinAddr: 0x10000A018, symSize: 0xC }
  - { offsetInCU: 0xBA0E, offset: 0x14700, size: 0x8, addend: 0x0, symName: __ZNKSt3__16__lessIddEclB7v160006ERKdS3_, symObjAddr: 0x5A74, symBinAddr: 0x10000A078, symSize: 0x34 }
  - { offsetInCU: 0x455, offset: 0x14C8A, size: 0x8, addend: 0x0, symName: __ZN13LinearAlgebraplERKNS_6VectorES2_, symObjAddr: 0xD88, symBinAddr: 0x10000AD5C, symSize: 0x1F0 }
  - { offsetInCU: 0x4D7, offset: 0x14D0C, size: 0x8, addend: 0x0, symName: __ZN13LinearAlgebramiERKNS_6VectorES2_, symObjAddr: 0x102C, symBinAddr: 0x10000B000, symSize: 0x1F4 }
  - { offsetInCU: 0x559, offset: 0x14D8E, size: 0x8, addend: 0x0, symName: __ZN13LinearAlgebramlERKNS_6VectorERKd, symObjAddr: 0x12A0, symBinAddr: 0x10000B274, symSize: 0x34 }
  - { offsetInCU: 0x593, offset: 0x14DC8, size: 0x8, addend: 0x0, symName: __ZN13LinearAlgebrangERKNS_6VectorE, symObjAddr: 0x12D4, symBinAddr: 0x10000B2A8, symSize: 0x118 }
  - { offsetInCU: 0x5EA, offset: 0x14E1F, size: 0x8, addend: 0x0, symName: __ZN13LinearAlgebrapsERKNS_6VectorE, symObjAddr: 0x1404, symBinAddr: 0x10000B3C0, symSize: 0x38 }
  - { offsetInCU: 0x616, offset: 0x14E4B, size: 0x8, addend: 0x0, symName: __ZN13LinearAlgebraplERKdRKNS_6VectorE, symObjAddr: 0x1494, symBinAddr: 0x10000B3F8, symSize: 0xF0 }
  - { offsetInCU: 0x689, offset: 0x14EBE, size: 0x8, addend: 0x0, symName: __ZN13LinearAlgebraplERKNS_6VectorERKd, symObjAddr: 0x1584, symBinAddr: 0x10000B4E8, symSize: 0xF4 }
  - { offsetInCU: 0x6E0, offset: 0x14F15, size: 0x8, addend: 0x0, symName: __ZN13LinearAlgebramlERKdRKNS_6VectorE, symObjAddr: 0x1678, symBinAddr: 0x10000B5DC, symSize: 0x12C }
  - { offsetInCU: 0x745, offset: 0x14F7A, size: 0x8, addend: 0x0, symName: __ZN13LinearAlgebradvERKNS_6VectorERKd, symObjAddr: 0x17A4, symBinAddr: 0x10000B708, symSize: 0x124 }
  - { offsetInCU: 0x7AA, offset: 0x14FDF, size: 0x8, addend: 0x0, symName: __ZN13LinearAlgebramlERKNS_6VectorES2_, symObjAddr: 0x18C8, symBinAddr: 0x10000B82C, symSize: 0xDC }
  - { offsetInCU: 0x82A, offset: 0x1505F, size: 0x8, addend: 0x0, symName: __ZN13LinearAlgebraanERKNS_6VectorES2_, symObjAddr: 0x19A4, symBinAddr: 0x10000B908, symSize: 0x158 }
  - { offsetInCU: 0x8A4, offset: 0x150D9, size: 0x8, addend: 0x0, symName: __ZN13LinearAlgebraanERKdRKNS_6VectorE, symObjAddr: 0x1AFC, symBinAddr: 0x10000BA60, symSize: 0x104 }
  - { offsetInCU: 0x90F, offset: 0x15144, size: 0x8, addend: 0x0, symName: __ZN13LinearAlgebraanERKNS_6VectorERKd, symObjAddr: 0x1C00, symBinAddr: 0x10000BB64, symSize: 0x104 }
  - { offsetInCU: 0x97A, offset: 0x151AF, size: 0x8, addend: 0x0, symName: __ZN13LinearAlgebra3SumERKNS_6VectorE, symObjAddr: 0x1D04, symBinAddr: 0x10000BC68, symSize: 0x84 }
  - { offsetInCU: 0x9D4, offset: 0x15209, size: 0x8, addend: 0x0, symName: __ZN13LinearAlgebra7MaxNormERKNS_6VectorE, symObjAddr: 0x1D88, symBinAddr: 0x10000BCEC, symSize: 0xAC }
  - { offsetInCU: 0xA2E, offset: 0x15263, size: 0x8, addend: 0x0, symName: __ZN13LinearAlgebra7InfNormERKNS_6VectorE, symObjAddr: 0x1E4C, symBinAddr: 0x10000BD98, symSize: 0x24 }
  - { offsetInCU: 0xA5C, offset: 0x15291, size: 0x8, addend: 0x0, symName: __ZN13LinearAlgebra8CityNormERKNS_6VectorE, symObjAddr: 0x1E70, symBinAddr: 0x10000BDBC, symSize: 0x8C }
  - { offsetInCU: 0xAB6, offset: 0x152EB, size: 0x8, addend: 0x0, symName: __ZN13LinearAlgebra10EuclidNormERKNS_6VectorE, symObjAddr: 0x1EFC, symBinAddr: 0x10000BE48, symSize: 0x2C }
  - { offsetInCU: 0xAE4, offset: 0x15319, size: 0x8, addend: 0x0, symName: __ZN13LinearAlgebralsERNSt3__113basic_ostreamIcNS0_11char_traitsIcEEEERKNS_6VectorE, symObjAddr: 0x1F28, symBinAddr: 0x10000BE74, symSize: 0x144 }
  - { offsetInCU: 0xB5C, offset: 0x15391, size: 0x8, addend: 0x0, symName: __ZN13LinearAlgebrarsERNSt3__113basic_istreamIcNS0_11char_traitsIcEEEERNS_6VectorE, symObjAddr: 0x21E0, symBinAddr: 0x10000BFB8, symSize: 0x90 }
  - { offsetInCU: 0xBC5, offset: 0x153FA, size: 0x8, addend: 0x0, symName: __ZN13LinearAlgebra6MaxModERKNS_6VectorE, symObjAddr: 0x2B98, symBinAddr: 0x10000C970, symSize: 0xA0 }
  - { offsetInCU: 0x4D5F, offset: 0x19594, size: 0x8, addend: 0x0, symName: __ZNSt3__17advanceB7v160006INS_11__wrap_iterIPKdEEmmvEEvRT_T0_, symObjAddr: 0x408C, symBinAddr: 0x10000D13C, symSize: 0x50 }
  - { offsetInCU: 0x5C4F, offset: 0x1A484, size: 0x8, addend: 0x0, symName: __ZNSt3__119__debug_db_insert_cB7v160006INS_6vectorIdNS_9allocatorIdEEEEEEvPT_, symObjAddr: 0x396C, symBinAddr: 0x10000CA98, symSize: 0x10 }
  - { offsetInCU: 0x5C80, offset: 0x1A4B5, size: 0x8, addend: 0x0, symName: __ZNSt3__118__debug_db_erase_cB7v160006INS_6vectorIdNS_9allocatorIdEEEEEEvPT_, symObjAddr: 0x3C28, symBinAddr: 0x10000CD54, symSize: 0x10 }
  - { offsetInCU: 0x5CB1, offset: 0x1A4E6, size: 0x8, addend: 0x0, symName: __ZNSt3__112__to_addressB7v160006IdEEPT_S2_, symObjAddr: 0x3D44, symBinAddr: 0x10000CE70, symSize: 0x14 }
  - { offsetInCU: 0x5CE6, offset: 0x1A51B, size: 0x8, addend: 0x0, symName: __ZNSt3__18distanceB7v160006INS_11__wrap_iterIPKdEEEENS_15iterator_traitsIT_E15difference_typeES6_S6_, symObjAddr: 0x4050, symBinAddr: 0x10000D100, symSize: 0x3C }
  - { offsetInCU: 0x5D29, offset: 0x1A55E, size: 0x8, addend: 0x0, symName: __ZNSt3__14copyB7v160006INS_11__wrap_iterIPKdEEPdEET0_T_S7_S6_, symObjAddr: 0x40DC, symBinAddr: 0x10000D18C, symSize: 0x50 }
  - { offsetInCU: 0x5D83, offset: 0x1A5B8, size: 0x8, addend: 0x0, symName: __ZNSt3__125__debug_db_invalidate_allB7v160006INS_6vectorIdNS_9allocatorIdEEEEEEvPT_, symObjAddr: 0x4444, symBinAddr: 0x10000D4F4, symSize: 0x10 }
  - { offsetInCU: 0x5DB4, offset: 0x1A5E9, size: 0x8, addend: 0x0, symName: __ZNSt3__110__distanceB7v160006INS_11__wrap_iterIPKdEEEENS_15iterator_traitsIT_E15difference_typeES6_S6_NS_26random_access_iterator_tagE, symObjAddr: 0x4454, symBinAddr: 0x10000D504, symSize: 0x30 }
  - { offsetInCU: 0x5E01, offset: 0x1A636, size: 0x8, addend: 0x0, symName: __ZNSt3__1miB7v160006IPKdS2_EENS_11__wrap_iterIT_E15difference_typeERKS5_RKNS3_IT0_EE, symObjAddr: 0x4484, symBinAddr: 0x10000D534, symSize: 0x48 }
  - { offsetInCU: 0x5E4D, offset: 0x1A682, size: 0x8, addend: 0x0, symName: __ZNSt3__19__advanceB7v160006INS_11__wrap_iterIPKdEEEEvRT_NS_15iterator_traitsIS5_E15difference_typeENS_26random_access_iterator_tagE, symObjAddr: 0x44F8, symBinAddr: 0x10000D594, symSize: 0x2C }
  - { offsetInCU: 0x5E97, offset: 0x1A6CC, size: 0x8, addend: 0x0, symName: __ZNSt3__16__copyB7v160006INS_17_ClassicAlgPolicyENS_11__wrap_iterIPKdEES5_PdEENS_4pairIT0_T2_EES8_T1_S9_, symObjAddr: 0x454C, symBinAddr: 0x10000D5E8, symSize: 0x54 }
  - { offsetInCU: 0x5F03, offset: 0x1A738, size: 0x8, addend: 0x0, symName: __ZNSt3__123__dispatch_copy_or_moveB7v160006INS_17_ClassicAlgPolicyENS_11__copy_loopIS1_EENS_14__copy_trivialENS_11__wrap_iterIPKdEES8_PdEENS_4pairIT2_T4_EESB_T3_SC_, symObjAddr: 0x45A0, symBinAddr: 0x10000D63C, symSize: 0x64 }
  - { offsetInCU: 0x5F81, offset: 0x1A7B6, size: 0x8, addend: 0x0, symName: __ZNSt3__121__unwrap_and_dispatchB7v160006INS_10__overloadINS_11__copy_loopINS_17_ClassicAlgPolicyEEENS_14__copy_trivialEEENS_11__wrap_iterIPKdEESA_PdLi0EEENS_4pairIT0_T2_EESD_T1_SE_, symObjAddr: 0x4604, symBinAddr: 0x10000D6A0, symSize: 0xCC }
  - { offsetInCU: 0x6010, offset: 0x1A845, size: 0x8, addend: 0x0, symName: __ZNSt3__114__unwrap_rangeB7v160006INS_11__wrap_iterIPKdEES3_EENS_4pairIT0_S6_EET_S8_, symObjAddr: 0x46D0, symBinAddr: 0x10000D76C, symSize: 0x70 }
  - { offsetInCU: 0x6150, offset: 0x1A985, size: 0x8, addend: 0x0, symName: __ZNSt3__113__unwrap_iterB7v160006IPdNS_18__unwrap_iter_implIS1_Lb1EEELi0EEEDTclsrT0_8__unwrapclsr3stdE7declvalIT_EEEES5_, symObjAddr: 0x4788, symBinAddr: 0x10000D824, symSize: 0x24 }
  - { offsetInCU: 0x6195, offset: 0x1A9CA, size: 0x8, addend: 0x0, symName: __ZNSt3__19make_pairB7v160006INS_11__wrap_iterIPKdEEPdEENS_4pairINS_18__unwrap_ref_decayIT_E4typeENS7_IT0_E4typeEEEOS8_OSB_, symObjAddr: 0x47AC, symBinAddr: 0x10000D848, symSize: 0x38 }
  - { offsetInCU: 0x61E4, offset: 0x1AA19, size: 0x8, addend: 0x0, symName: __ZNSt3__114__rewrap_rangeB7v160006INS_11__wrap_iterIPKdEES3_EET_S5_T0_, symObjAddr: 0x47E4, symBinAddr: 0x10000D880, symSize: 0x3C }
  - { offsetInCU: 0x6230, offset: 0x1AA65, size: 0x8, addend: 0x0, symName: __ZNSt3__113__rewrap_iterB7v160006IPdS1_NS_18__unwrap_iter_implIS1_Lb1EEEEET_S4_T0_, symObjAddr: 0x4820, symBinAddr: 0x10000D8BC, symSize: 0x50 }
  - { offsetInCU: 0x6285, offset: 0x1AABA, size: 0x8, addend: 0x0, symName: __ZNSt3__19make_pairB7v160006IPKdS2_EENS_4pairINS_18__unwrap_ref_decayIT_E4typeENS4_IT0_E4typeEEEOS5_OS8_, symObjAddr: 0x4870, symBinAddr: 0x10000D90C, symSize: 0x38 }
  - { offsetInCU: 0x62D4, offset: 0x1AB09, size: 0x8, addend: 0x0, symName: __ZNSt3__113__unwrap_iterB7v160006INS_11__wrap_iterIPKdEENS_18__unwrap_iter_implIS4_Lb1EEELi0EEEDTclsrT0_8__unwrapclsr3stdE7declvalIT_EEEES8_, symObjAddr: 0x48A8, symBinAddr: 0x10000D944, symSize: 0x2C }
  - { offsetInCU: 0x641A, offset: 0x1AC4F, size: 0x8, addend: 0x0, symName: __ZNSt3__112__to_addressB7v160006INS_11__wrap_iterIPKdEEvEENS_5decayIDTclsr19__to_address_helperIT_EE6__callclsr3stdE7declvalIRKS6_EEEEE4typeES8_, symObjAddr: 0x496C, symBinAddr: 0x10000DA08, symSize: 0x24 }
  - { offsetInCU: 0x64FB, offset: 0x1AD30, size: 0x8, addend: 0x0, symName: __ZNSt3__112__to_addressB7v160006IKdEEPT_S3_, symObjAddr: 0x49EC, symBinAddr: 0x10000DA88, symSize: 0x14 }
  - { offsetInCU: 0x6530, offset: 0x1AD65, size: 0x8, addend: 0x0, symName: __ZNSt3__119__copy_trivial_implB7v160006IKddEENS_4pairIPT_PT0_EES4_S4_S6_, symObjAddr: 0x4A00, symBinAddr: 0x10000DA9C, symSize: 0x84 }
  - { offsetInCU: 0x6598, offset: 0x1ADCD, size: 0x8, addend: 0x0, symName: __ZNSt3__19make_pairB7v160006IRPKdPdEENS_4pairINS_18__unwrap_ref_decayIT_E4typeENS6_IT0_E4typeEEEOS7_OSA_, symObjAddr: 0x4A84, symBinAddr: 0x10000DB20, symSize: 0x38 }
  - { offsetInCU: 0x66E8, offset: 0x1AF1D, size: 0x8, addend: 0x0, symName: __ZNSt3__113__rewrap_iterB7v160006INS_11__wrap_iterIPKdEES3_NS_18__unwrap_iter_implIS4_Lb1EEEEET_S7_T0_, symObjAddr: 0x4BC0, symBinAddr: 0x10000DC5C, symSize: 0x60 }
  - { offsetInCU: 0x673D, offset: 0x1AF72, size: 0x8, addend: 0x0, symName: __ZNSt3__130__uninitialized_allocator_copyB7v160006INS_9allocatorIdEENS_11__wrap_iterIPKdEES6_PdEET2_RT_T0_T1_S8_, symObjAddr: 0x4D44, symBinAddr: 0x10000DDE0, symSize: 0x100 }
  - { offsetInCU: 0x67DB, offset: 0x1B010, size: 0x8, addend: 0x0, symName: __ZNSt3__122__make_exception_guardB7v160006INS_29_AllocatorDestroyRangeReverseINS_9allocatorIdEEPdEEEENS_28__exception_guard_exceptionsIT_EES7_, symObjAddr: 0x4EB4, symBinAddr: 0x10000DF50, symSize: 0x4C }
  - { offsetInCU: 0x6811, offset: 0x1B046, size: 0x8, addend: 0x0, symName: __ZNSt3__1neB7v160006IPKdEEbRKNS_11__wrap_iterIT_EES7_, symObjAddr: 0x4F44, symBinAddr: 0x10000DFE0, symSize: 0x34 }
  - { offsetInCU: 0x6854, offset: 0x1B089, size: 0x8, addend: 0x0, symName: __ZNSt3__1eqB7v160006IPKdEEbRKNS_11__wrap_iterIT_EES7_, symObjAddr: 0x50C8, symBinAddr: 0x10000E164, symSize: 0x48 }
  - { offsetInCU: 0x6897, offset: 0x1B0CC, size: 0x8, addend: 0x0, symName: __ZNSt3__119__allocator_destroyB7v160006INS_9allocatorIdEENS_16reverse_iteratorIPdEES5_EEvRT_T0_T1_, symObjAddr: 0x51E8, symBinAddr: 0x10000E284, symSize: 0x70 }
  - { offsetInCU: 0x68FB, offset: 0x1B130, size: 0x8, addend: 0x0, symName: __ZNSt3__1neB7v160006IPdS1_EEbRKNS_16reverse_iteratorIT_EERKNS2_IT0_EE, symObjAddr: 0x528C, symBinAddr: 0x10000E328, symSize: 0x48 }
  - { offsetInCU: 0x6947, offset: 0x1B17C, size: 0x8, addend: 0x0, symName: __ZNSt3__112__to_addressB7v160006INS_16reverse_iteratorIPdEEvEENS_5decayIDTclsr19__to_address_helperIT_EE6__callclsr3stdE7declvalIRKS5_EEEEE4typeES7_, symObjAddr: 0x52D4, symBinAddr: 0x10000E370, symSize: 0x24 }
  - { offsetInCU: 0x69A8, offset: 0x1B1DD, size: 0x8, addend: 0x0, symName: __ZNSt3__119__allocate_at_leastB7v160006INS_9allocatorIdEEEENS_19__allocation_resultINS_16allocator_traitsIT_E7pointerEEERS5_m, symObjAddr: 0x5630, symBinAddr: 0x10000E6CC, symSize: 0x40 }
  - { offsetInCU: 0x69EB, offset: 0x1B220, size: 0x8, addend: 0x0, symName: __ZNSt3__16fill_nB7v160006IPdmdEET_S2_T0_RKT1_, symObjAddr: 0x5AEC, symBinAddr: 0x10000E8D4, symSize: 0x44 }
  - { offsetInCU: 0x6A4E, offset: 0x1B283, size: 0x8, addend: 0x0, symName: __ZNSt3__18__fill_nB7v160006IPdmdEET_S2_T0_RKT1_, symObjAddr: 0x5C08, symBinAddr: 0x10000E9F0, symSize: 0x64 }
  - { offsetInCU: 0x9128, offset: 0x1D95D, size: 0x8, addend: 0x0, symName: __ZNK13LinearAlgebra6Vector5ErrorENS_8VecErrorEPKc, symObjAddr: 0x0, symBinAddr: 0x10000A0AC, symSize: 0x5C }
  - { offsetInCU: 0x916B, offset: 0x1D9A0, size: 0x8, addend: 0x0, symName: __ZN13LinearAlgebra6VectorixEl, symObjAddr: 0x128, symBinAddr: 0x10000A108, symSize: 0x30 }
  - { offsetInCU: 0x91A0, offset: 0x1D9D5, size: 0x8, addend: 0x0, symName: __ZNSt3__16vectorIdNS_9allocatorIdEEEixB7v160006Em, symObjAddr: 0x158, symBinAddr: 0x10000A138, symSize: 0x24 }
  - { offsetInCU: 0x91D5, offset: 0x1DA0A, size: 0x8, addend: 0x0, symName: __ZNK13LinearAlgebra6VectorixEl, symObjAddr: 0x17C, symBinAddr: 0x10000A15C, symSize: 0x30 }
  - { offsetInCU: 0x920A, offset: 0x1DA3F, size: 0x8, addend: 0x0, symName: __ZNKSt3__16vectorIdNS_9allocatorIdEEEixB7v160006Em, symObjAddr: 0x1AC, symBinAddr: 0x10000A18C, symSize: 0x24 }
  - { offsetInCU: 0x923F, offset: 0x1DA74, size: 0x8, addend: 0x0, symName: __ZN13LinearAlgebra6VectorclEl, symObjAddr: 0x1D0, symBinAddr: 0x10000A1B0, symSize: 0x2C }
  - { offsetInCU: 0x9274, offset: 0x1DAA9, size: 0x8, addend: 0x0, symName: __ZNK13LinearAlgebra6VectorclEl, symObjAddr: 0x1FC, symBinAddr: 0x10000A1DC, symSize: 0x2C }
  - { offsetInCU: 0x92A9, offset: 0x1DADE, size: 0x8, addend: 0x0, symName: __ZN13LinearAlgebra6VectorC2Ev, symObjAddr: 0x228, symBinAddr: 0x10000A208, symSize: 0x70 }
  - { offsetInCU: 0x92D4, offset: 0x1DB09, size: 0x8, addend: 0x0, symName: __ZNSt3__16vectorIdNS_9allocatorIdEEEC1B7v160006Ev, symObjAddr: 0x298, symBinAddr: 0x10000A278, symSize: 0x2C }
  - { offsetInCU: 0x92FC, offset: 0x1DB31, size: 0x8, addend: 0x0, symName: __ZN13LinearAlgebra6Vector5SetupEl, symObjAddr: 0x2C4, symBinAddr: 0x10000A2A4, symSize: 0x94 }
  - { offsetInCU: 0x9331, offset: 0x1DB66, size: 0x8, addend: 0x0, symName: __ZNSt3__16vectorIdNS_9allocatorIdEEED1B7v160006Ev, symObjAddr: 0x358, symBinAddr: 0x10000A338, symSize: 0x2C }
  - { offsetInCU: 0x9359, offset: 0x1DB8E, size: 0x8, addend: 0x0, symName: __ZN13LinearAlgebra6VectorC1Ev, symObjAddr: 0x390, symBinAddr: 0x10000A364, symSize: 0x2C }
  - { offsetInCU: 0x9384, offset: 0x1DBB9, size: 0x8, addend: 0x0, symName: __ZN13LinearAlgebra6VectorC2El, symObjAddr: 0x3BC, symBinAddr: 0x10000A390, symSize: 0x74 }
  - { offsetInCU: 0x93BD, offset: 0x1DBF2, size: 0x8, addend: 0x0, symName: __ZN13LinearAlgebra6VectorC1El, symObjAddr: 0x430, symBinAddr: 0x10000A404, symSize: 0x34 }
  - { offsetInCU: 0x93F6, offset: 0x1DC2B, size: 0x8, addend: 0x0, symName: __ZN13LinearAlgebra6VectorC2Eld, symObjAddr: 0x464, symBinAddr: 0x10000A438, symSize: 0x7C }
  - { offsetInCU: 0x943D, offset: 0x1DC72, size: 0x8, addend: 0x0, symName: __ZN13LinearAlgebra6Vector5SetupEld, symObjAddr: 0x4E0, symBinAddr: 0x10000A4B4, symSize: 0x90 }
  - { offsetInCU: 0x9480, offset: 0x1DCB5, size: 0x8, addend: 0x0, symName: __ZN13LinearAlgebra6VectorC1Eld, symObjAddr: 0x570, symBinAddr: 0x10000A544, symSize: 0x3C }
  - { offsetInCU: 0x94C7, offset: 0x1DCFC, size: 0x8, addend: 0x0, symName: __ZN13LinearAlgebra6VectorC2ERKS0_, symObjAddr: 0x5AC, symBinAddr: 0x10000A580, symSize: 0x74 }
  - { offsetInCU: 0x94FF, offset: 0x1DD34, size: 0x8, addend: 0x0, symName: __ZN13LinearAlgebra6Vector5SetupERKS0_, symObjAddr: 0x620, symBinAddr: 0x10000A5F4, symSize: 0xBC }
  - { offsetInCU: 0x9534, offset: 0x1DD69, size: 0x8, addend: 0x0, symName: __ZN13LinearAlgebra6VectorC1ERKS0_, symObjAddr: 0x6DC, symBinAddr: 0x10000A6B0, symSize: 0x34 }
  - { offsetInCU: 0x956C, offset: 0x1DDA1, size: 0x8, addend: 0x0, symName: __ZN13LinearAlgebra6VectorC2ERKNSt3__16vectorIdNS1_9allocatorIdEEEE, symObjAddr: 0x710, symBinAddr: 0x10000A6E4, symSize: 0xB8 }
  - { offsetInCU: 0x95A5, offset: 0x1DDDA, size: 0x8, addend: 0x0, symName: __ZNKSt3__16vectorIdNS_9allocatorIdEEE4sizeB7v160006Ev, symObjAddr: 0x7C8, symBinAddr: 0x10000A79C, symSize: 0x28 }
  - { offsetInCU: 0x95C9, offset: 0x1DDFE, size: 0x8, addend: 0x0, symName: __ZNSt3__16vectorIdNS_9allocatorIdEEE6assignINS_11__wrap_iterIPKdEELi0EEEvT_S9_, symObjAddr: 0x7F0, symBinAddr: 0x10000A7C4, symSize: 0x1AC }
  - { offsetInCU: 0x9668, offset: 0x1DE9D, size: 0x8, addend: 0x0, symName: __ZNKSt3__16vectorIdNS_9allocatorIdEEE5beginB7v160006Ev, symObjAddr: 0x99C, symBinAddr: 0x10000A970, symSize: 0x30 }
  - { offsetInCU: 0x968E, offset: 0x1DEC3, size: 0x8, addend: 0x0, symName: __ZNKSt3__16vectorIdNS_9allocatorIdEEE3endB7v160006Ev, symObjAddr: 0x9CC, symBinAddr: 0x10000A9A0, symSize: 0x30 }
  - { offsetInCU: 0x96B4, offset: 0x1DEE9, size: 0x8, addend: 0x0, symName: __ZN13LinearAlgebra6VectorC1ERKNSt3__16vectorIdNS1_9allocatorIdEEEE, symObjAddr: 0x9FC, symBinAddr: 0x10000A9D0, symSize: 0x34 }
  - { offsetInCU: 0x96ED, offset: 0x1DF22, size: 0x8, addend: 0x0, symName: __ZN13LinearAlgebra6VectorD2Ev, symObjAddr: 0xA30, symBinAddr: 0x10000AA04, symSize: 0x30 }
  - { offsetInCU: 0x9718, offset: 0x1DF4D, size: 0x8, addend: 0x0, symName: __ZN13LinearAlgebra6VectorD1Ev, symObjAddr: 0xA60, symBinAddr: 0x10000AA34, symSize: 0x2C }
  - { offsetInCU: 0x9743, offset: 0x1DF78, size: 0x8, addend: 0x0, symName: __ZNSt3__16vectorIdNS_9allocatorIdEEE6assignEmRKd, symObjAddr: 0xA8C, symBinAddr: 0x10000AA60, symSize: 0x110 }
  - { offsetInCU: 0x97A4, offset: 0x1DFD9, size: 0x8, addend: 0x0, symName: __ZN13LinearAlgebra6Vector6ResizeEl, symObjAddr: 0xB9C, symBinAddr: 0x10000AB70, symSize: 0x7C }
  - { offsetInCU: 0x97D9, offset: 0x1E00E, size: 0x8, addend: 0x0, symName: __ZN13LinearAlgebra6Vector6AssignEld, symObjAddr: 0xC18, symBinAddr: 0x10000ABEC, symSize: 0x34 }
  - { offsetInCU: 0x981C, offset: 0x1E051, size: 0x8, addend: 0x0, symName: __ZN13LinearAlgebra6VectoraSERKd, symObjAddr: 0xC4C, symBinAddr: 0x10000AC20, symSize: 0x40 }
  - { offsetInCU: 0x9851, offset: 0x1E086, size: 0x8, addend: 0x0, symName: __ZN13LinearAlgebra6VectoraSERKNSt3__16vectorIdNS1_9allocatorIdEEEE, symObjAddr: 0xC8C, symBinAddr: 0x10000AC60, symSize: 0x7C }
  - { offsetInCU: 0x9886, offset: 0x1E0BB, size: 0x8, addend: 0x0, symName: __ZN13LinearAlgebra6VectorpLERKS0_, symObjAddr: 0xD08, symBinAddr: 0x10000ACDC, symSize: 0x80 }
  - { offsetInCU: 0x98BB, offset: 0x1E0F0, size: 0x8, addend: 0x0, symName: __ZN13LinearAlgebra6VectoraSERKS0_, symObjAddr: 0xF78, symBinAddr: 0x10000AF4C, symSize: 0x34 }
  - { offsetInCU: 0x98F0, offset: 0x1E125, size: 0x8, addend: 0x0, symName: __ZN13LinearAlgebra6VectormIERKS0_, symObjAddr: 0xFAC, symBinAddr: 0x10000AF80, symSize: 0x80 }
  - { offsetInCU: 0x9925, offset: 0x1E15A, size: 0x8, addend: 0x0, symName: __ZN13LinearAlgebra6VectormLERKd, symObjAddr: 0x1220, symBinAddr: 0x10000B1F4, symSize: 0x80 }
  - { offsetInCU: 0x995A, offset: 0x1E18F, size: 0x8, addend: 0x0, symName: __ZN13LinearAlgebra6Vector9RandomizeERKddi, symObjAddr: 0x2270, symBinAddr: 0x10000C048, symSize: 0x1A8 }
  - { offsetInCU: 0x99EA, offset: 0x1E21F, size: 0x8, addend: 0x0, symName: __ZN13LinearAlgebra6Vector9RandomizeERKdll, symObjAddr: 0x2418, symBinAddr: 0x10000C1F0, symSize: 0x12C }
  - { offsetInCU: 0x9A79, offset: 0x1E2AE, size: 0x8, addend: 0x0, symName: __ZN13LinearAlgebra6Vector5ScaleERS0_S1_, symObjAddr: 0x2544, symBinAddr: 0x10000C31C, symSize: 0x190 }
  - { offsetInCU: 0x9ADC, offset: 0x1E311, size: 0x8, addend: 0x0, symName: __ZN13LinearAlgebra6Vector7UpscaleERS0_S1_, symObjAddr: 0x26D4, symBinAddr: 0x10000C4AC, symSize: 0x194 }
  - { offsetInCU: 0x9B3F, offset: 0x1E374, size: 0x8, addend: 0x0, symName: __ZN13LinearAlgebra6Vector8DistanceERKS0_, symObjAddr: 0x2868, symBinAddr: 0x10000C640, symSize: 0xB4 }
  - { offsetInCU: 0x9BB1, offset: 0x1E3E6, size: 0x8, addend: 0x0, symName: __ZN13LinearAlgebra6Vector10DifferenceERKS0_, symObjAddr: 0x291C, symBinAddr: 0x10000C6F4, symSize: 0xB0 }
  - { offsetInCU: 0x9C23, offset: 0x1E458, size: 0x8, addend: 0x0, symName: __ZN13LinearAlgebra6Vector10DownSampleEl, symObjAddr: 0x29CC, symBinAddr: 0x10000C7A4, symSize: 0x194 }
  - { offsetInCU: 0x9C96, offset: 0x1E4CB, size: 0x8, addend: 0x0, symName: __ZN13LinearAlgebra6Vector8MakeZeroEv, symObjAddr: 0x2B60, symBinAddr: 0x10000C938, symSize: 0x38 }
  - { offsetInCU: 0x9CE6, offset: 0x1E51B, size: 0x8, addend: 0x0, symName: __ZNSt3__16vectorIdNS_9allocatorIdEEEC2B7v160006Ev, symObjAddr: 0x38E4, symBinAddr: 0x10000CA10, symSize: 0x4C }
  - { offsetInCU: 0x9D13, offset: 0x1E548, size: 0x8, addend: 0x0, symName: __ZNSt3__117__compressed_pairIPdNS_9allocatorIdEEEC1B7v160006IDnNS_18__default_init_tagEEEOT_OT0_, symObjAddr: 0x3930, symBinAddr: 0x10000CA5C, symSize: 0x3C }
  - { offsetInCU: 0x9D69, offset: 0x1E59E, size: 0x8, addend: 0x0, symName: __ZNSt3__117__compressed_pairIPdNS_9allocatorIdEEEC2B7v160006IDnNS_18__default_init_tagEEEOT_OT0_, symObjAddr: 0x397C, symBinAddr: 0x10000CAA8, symSize: 0x40 }
  - { offsetInCU: 0x9DBF, offset: 0x1E5F4, size: 0x8, addend: 0x0, symName: __ZNSt3__122__compressed_pair_elemIPdLi0ELb0EEC2B7v160006IDnvEEOT_, symObjAddr: 0x39BC, symBinAddr: 0x10000CAE8, symSize: 0x1C }
  - { offsetInCU: 0x9E00, offset: 0x1E635, size: 0x8, addend: 0x0, symName: __ZNSt3__122__compressed_pair_elemINS_9allocatorIdEELi1ELb1EEC2B7v160006ENS_18__default_init_tagE, symObjAddr: 0x39D8, symBinAddr: 0x10000CB04, symSize: 0x2C }
  - { offsetInCU: 0x9E32, offset: 0x1E667, size: 0x8, addend: 0x0, symName: __ZNSt3__19allocatorIdEC2B7v160006Ev, symObjAddr: 0x3A04, symBinAddr: 0x10000CB30, symSize: 0x2C }
  - { offsetInCU: 0x9E5A, offset: 0x1E68F, size: 0x8, addend: 0x0, symName: __ZNSt3__116__non_trivial_ifILb1ENS_9allocatorIdEEEC2B7v160006Ev, symObjAddr: 0x3A30, symBinAddr: 0x10000CB5C, symSize: 0x14 }
  - { offsetInCU: 0x9E82, offset: 0x1E6B7, size: 0x8, addend: 0x0, symName: __ZNSt3__16vectorIdNS_9allocatorIdEEED2B7v160006Ev, symObjAddr: 0x3A44, symBinAddr: 0x10000CB70, symSize: 0x3C }
  - { offsetInCU: 0x9EAA, offset: 0x1E6DF, size: 0x8, addend: 0x0, symName: __ZNSt3__16vectorIdNS_9allocatorIdEEE16__destroy_vectorC1ERS3_, symObjAddr: 0x3A80, symBinAddr: 0x10000CBAC, symSize: 0x34 }
  - { offsetInCU: 0x9EE1, offset: 0x1E716, size: 0x8, addend: 0x0, symName: __ZNSt3__16vectorIdNS_9allocatorIdEEE16__destroy_vectorclB7v160006Ev, symObjAddr: 0x3AB4, symBinAddr: 0x10000CBE0, symSize: 0x9C }
  - { offsetInCU: 0x9F05, offset: 0x1E73A, size: 0x8, addend: 0x0, symName: __ZNSt3__16vectorIdNS_9allocatorIdEEE16__destroy_vectorC2ERS3_, symObjAddr: 0x3B50, symBinAddr: 0x10000CC7C, symSize: 0x20 }
  - { offsetInCU: 0x9F3C, offset: 0x1E771, size: 0x8, addend: 0x0, symName: __ZNKSt3__16vectorIdNS_9allocatorIdEEE17__annotate_deleteB7v160006Ev, symObjAddr: 0x3B70, symBinAddr: 0x10000CC9C, symSize: 0xB8 }
  - { offsetInCU: 0x9F60, offset: 0x1E795, size: 0x8, addend: 0x0, symName: __ZNSt3__16vectorIdNS_9allocatorIdEEE7__clearB7v160006Ev, symObjAddr: 0x3C38, symBinAddr: 0x10000CD64, symSize: 0x28 }
  - { offsetInCU: 0x9F84, offset: 0x1E7B9, size: 0x8, addend: 0x0, symName: __ZNSt3__116allocator_traitsINS_9allocatorIdEEE10deallocateB7v160006ERS2_Pdm, symObjAddr: 0x3C60, symBinAddr: 0x10000CD8C, symSize: 0x34 }
  - { offsetInCU: 0x9FC5, offset: 0x1E7FA, size: 0x8, addend: 0x0, symName: __ZNSt3__16vectorIdNS_9allocatorIdEEE7__allocB7v160006Ev, symObjAddr: 0x3C94, symBinAddr: 0x10000CDC0, symSize: 0x28 }
  - { offsetInCU: 0x9FE9, offset: 0x1E81E, size: 0x8, addend: 0x0, symName: __ZNKSt3__16vectorIdNS_9allocatorIdEEE8capacityB7v160006Ev, symObjAddr: 0x3CBC, symBinAddr: 0x10000CDE8, symSize: 0x40 }
  - { offsetInCU: 0xA00D, offset: 0x1E842, size: 0x8, addend: 0x0, symName: __ZNKSt3__16vectorIdNS_9allocatorIdEEE31__annotate_contiguous_containerB7v160006EPKvS5_S5_S5_, symObjAddr: 0x3CFC, symBinAddr: 0x10000CE28, symSize: 0x20 }
  - { offsetInCU: 0xA061, offset: 0x1E896, size: 0x8, addend: 0x0, symName: __ZNKSt3__16vectorIdNS_9allocatorIdEEE4dataB7v160006Ev, symObjAddr: 0x3D1C, symBinAddr: 0x10000CE48, symSize: 0x28 }
  - { offsetInCU: 0xA085, offset: 0x1E8BA, size: 0x8, addend: 0x0, symName: __ZNSt3__16vectorIdNS_9allocatorIdEEE22__base_destruct_at_endB7v160006EPd, symObjAddr: 0x3D58, symBinAddr: 0x10000CE84, symSize: 0xA0 }
  - { offsetInCU: 0xA0C7, offset: 0x1E8FC, size: 0x8, addend: 0x0, symName: __ZNSt3__116allocator_traitsINS_9allocatorIdEEE7destroyB7v160006IdvEEvRS2_PT_, symObjAddr: 0x3DF8, symBinAddr: 0x10000CF24, symSize: 0x2C }
  - { offsetInCU: 0xA104, offset: 0x1E939, size: 0x8, addend: 0x0, symName: __ZNSt3__19allocatorIdE7destroyB7v160006EPd, symObjAddr: 0x3E24, symBinAddr: 0x10000CF50, symSize: 0x14 }
  - { offsetInCU: 0xA136, offset: 0x1E96B, size: 0x8, addend: 0x0, symName: __ZNSt3__19allocatorIdE10deallocateB7v160006EPdm, symObjAddr: 0x3E38, symBinAddr: 0x10000CF64, symSize: 0x70 }
  - { offsetInCU: 0xA176, offset: 0x1E9AB, size: 0x8, addend: 0x0, symName: __ZNSt3__117__compressed_pairIPdNS_9allocatorIdEEE6secondB7v160006Ev, symObjAddr: 0x3F24, symBinAddr: 0x10000CFD4, symSize: 0x24 }
  - { offsetInCU: 0xA19A, offset: 0x1E9CF, size: 0x8, addend: 0x0, symName: __ZNSt3__122__compressed_pair_elemINS_9allocatorIdEELi1ELb1EE5__getB7v160006Ev, symObjAddr: 0x3F48, symBinAddr: 0x10000CFF8, symSize: 0x14 }
  - { offsetInCU: 0xA1BE, offset: 0x1E9F3, size: 0x8, addend: 0x0, symName: __ZNKSt3__16vectorIdNS_9allocatorIdEEE9__end_capB7v160006Ev, symObjAddr: 0x3F5C, symBinAddr: 0x10000D00C, symSize: 0x28 }
  - { offsetInCU: 0xA1E2, offset: 0x1EA17, size: 0x8, addend: 0x0, symName: __ZNKSt3__117__compressed_pairIPdNS_9allocatorIdEEE5firstB7v160006Ev, symObjAddr: 0x3F84, symBinAddr: 0x10000D034, symSize: 0x24 }
  - { offsetInCU: 0xA206, offset: 0x1EA3B, size: 0x8, addend: 0x0, symName: __ZNKSt3__122__compressed_pair_elemIPdLi0ELb0EE5__getB7v160006Ev, symObjAddr: 0x3FA8, symBinAddr: 0x10000D058, symSize: 0x14 }
  - { offsetInCU: 0xA22A, offset: 0x1EA5F, size: 0x8, addend: 0x0, symName: __ZNKSt3__16vectorIdNS_9allocatorIdEEE11__make_iterB7v160006EPKd, symObjAddr: 0x3FBC, symBinAddr: 0x10000D06C, symSize: 0x34 }
  - { offsetInCU: 0xA25D, offset: 0x1EA92, size: 0x8, addend: 0x0, symName: __ZNSt3__111__wrap_iterIPKdEC1B7v160006EPKvS2_, symObjAddr: 0x3FF0, symBinAddr: 0x10000D0A0, symSize: 0x3C }
  - { offsetInCU: 0xA2A1, offset: 0x1EAD6, size: 0x8, addend: 0x0, symName: __ZNSt3__111__wrap_iterIPKdEC2B7v160006EPKvS2_, symObjAddr: 0x402C, symBinAddr: 0x10000D0DC, symSize: 0x24 }
  - { offsetInCU: 0xA2E5, offset: 0x1EB1A, size: 0x8, addend: 0x0, symName: __ZNSt3__16vectorIdNS_9allocatorIdEEE18__construct_at_endINS_11__wrap_iterIPKdEELi0EEEvT_S9_m, symObjAddr: 0x412C, symBinAddr: 0x10000D1DC, symSize: 0xA4 }
  - { offsetInCU: 0xA357, offset: 0x1EB8C, size: 0x8, addend: 0x0, symName: __ZNSt3__16vectorIdNS_9allocatorIdEEE17__destruct_at_endB7v160006EPd, symObjAddr: 0x41D0, symBinAddr: 0x10000D280, symSize: 0x88 }
  - { offsetInCU: 0xA399, offset: 0x1EBCE, size: 0x8, addend: 0x0, symName: __ZNSt3__16vectorIdNS_9allocatorIdEEE13__vdeallocateEv, symObjAddr: 0x4258, symBinAddr: 0x10000D308, symSize: 0x8C }
  - { offsetInCU: 0xA3BF, offset: 0x1EBF4, size: 0x8, addend: 0x0, symName: __ZNSt3__16vectorIdNS_9allocatorIdEEE11__vallocateB7v160006Em, symObjAddr: 0x42E4, symBinAddr: 0x10000D394, symSize: 0xAC }
  - { offsetInCU: 0xA401, offset: 0x1EC36, size: 0x8, addend: 0x0, symName: __ZNKSt3__16vectorIdNS_9allocatorIdEEE11__recommendB7v160006Em, symObjAddr: 0x4390, symBinAddr: 0x10000D440, symSize: 0xB4 }
  - { offsetInCU: 0xA454, offset: 0x1EC89, size: 0x8, addend: 0x0, symName: __ZNKSt3__111__wrap_iterIPKdE4baseB7v160006Ev, symObjAddr: 0x44CC, symBinAddr: 0x10000D57C, symSize: 0x18 }
  - { offsetInCU: 0xA478, offset: 0x1ECAD, size: 0x8, addend: 0x0, symName: __ZNSt3__111__wrap_iterIPKdEpLB7v160006El, symObjAddr: 0x4524, symBinAddr: 0x10000D5C0, symSize: 0x28 }
  - { offsetInCU: 0xA4D7, offset: 0x1ED0C, size: 0x8, addend: 0x0, symName: __ZNKSt3__114__copy_trivialclB7v160006IKddLi0EEENS_4pairIPT_PT0_EES5_S5_S7_, symObjAddr: 0x4740, symBinAddr: 0x10000D7DC, symSize: 0x48 }
  - { offsetInCU: 0xA557, offset: 0x1ED8C, size: 0x8, addend: 0x0, symName: __ZNSt3__14pairIPKdS2_EC1B7v160006ERKS2_S5_, symObjAddr: 0x48D4, symBinAddr: 0x10000D970, symSize: 0x3C }
  - { offsetInCU: 0xA59B, offset: 0x1EDD0, size: 0x8, addend: 0x0, symName: __ZNSt3__14pairIPKdS2_EC2B7v160006ERKS2_S5_, symObjAddr: 0x4910, symBinAddr: 0x10000D9AC, symSize: 0x34 }
  - { offsetInCU: 0xA5DF, offset: 0x1EE14, size: 0x8, addend: 0x0, symName: __ZNSt3__118__unwrap_iter_implINS_11__wrap_iterIPKdEELb1EE8__unwrapB7v160006ES4_, symObjAddr: 0x4944, symBinAddr: 0x10000D9E0, symSize: 0x28 }
  - { offsetInCU: 0xA60B, offset: 0x1EE40, size: 0x8, addend: 0x0, symName: __ZNSt3__119__to_address_helperINS_11__wrap_iterIPKdEEvE6__callB7v160006ERKS4_, symObjAddr: 0x4990, symBinAddr: 0x10000DA2C, symSize: 0x30 }
  - { offsetInCU: 0xA62D, offset: 0x1EE62, size: 0x8, addend: 0x0, symName: __ZNSt3__114pointer_traitsINS_11__wrap_iterIPKdEEE10to_addressB7v160006ES4_, symObjAddr: 0x49C0, symBinAddr: 0x10000DA5C, symSize: 0x2C }
  - { offsetInCU: 0xA650, offset: 0x1EE85, size: 0x8, addend: 0x0, symName: __ZNSt3__14pairIPKdPdEC1B7v160006ERKS2_RKS3_, symObjAddr: 0x4ABC, symBinAddr: 0x10000DB58, symSize: 0x3C }
  - { offsetInCU: 0xA694, offset: 0x1EEC9, size: 0x8, addend: 0x0, symName: __ZNSt3__14pairIPKdPdEC2B7v160006ERKS2_RKS3_, symObjAddr: 0x4AF8, symBinAddr: 0x10000DB94, symSize: 0x34 }
  - { offsetInCU: 0xA6D8, offset: 0x1EF0D, size: 0x8, addend: 0x0, symName: __ZNSt3__118__unwrap_iter_implIPdLb1EE8__unwrapB7v160006ES1_, symObjAddr: 0x4B2C, symBinAddr: 0x10000DBC8, symSize: 0x24 }
  - { offsetInCU: 0xA713, offset: 0x1EF48, size: 0x8, addend: 0x0, symName: __ZNSt3__14pairINS_11__wrap_iterIPKdEEPdEC1B7v160006ERKS4_RKS5_, symObjAddr: 0x4B50, symBinAddr: 0x10000DBEC, symSize: 0x3C }
  - { offsetInCU: 0xA757, offset: 0x1EF8C, size: 0x8, addend: 0x0, symName: __ZNSt3__14pairINS_11__wrap_iterIPKdEEPdEC2B7v160006ERKS4_RKS5_, symObjAddr: 0x4B8C, symBinAddr: 0x10000DC28, symSize: 0x34 }
  - { offsetInCU: 0xA79B, offset: 0x1EFD0, size: 0x8, addend: 0x0, symName: __ZNSt3__118__unwrap_iter_implINS_11__wrap_iterIPKdEELb1EE8__rewrapB7v160006ES4_S3_, symObjAddr: 0x4C20, symBinAddr: 0x10000DCBC, symSize: 0x5C }
  - { offsetInCU: 0xA7CB, offset: 0x1F000, size: 0x8, addend: 0x0, symName: __ZNKSt3__111__wrap_iterIPKdEplB7v160006El, symObjAddr: 0x4C7C, symBinAddr: 0x10000DD18, symSize: 0x3C }
  - { offsetInCU: 0xA80B, offset: 0x1F040, size: 0x8, addend: 0x0, symName: __ZNSt3__118__unwrap_iter_implIPdLb1EE8__rewrapB7v160006ES1_S1_, symObjAddr: 0x4CB8, symBinAddr: 0x10000DD54, symSize: 0x50 }
  - { offsetInCU: 0xA854, offset: 0x1F089, size: 0x8, addend: 0x0, symName: __ZNSt3__16vectorIdNS_9allocatorIdEEE21_ConstructTransactionC1B7v160006ERS3_m, symObjAddr: 0x4D08, symBinAddr: 0x10000DDA4, symSize: 0x3C }
  - { offsetInCU: 0xA89A, offset: 0x1F0CF, size: 0x8, addend: 0x0, symName: __ZNSt3__16vectorIdNS_9allocatorIdEEE21_ConstructTransactionD1B7v160006Ev, symObjAddr: 0x4E44, symBinAddr: 0x10000DEE0, symSize: 0x2C }
  - { offsetInCU: 0xA8C2, offset: 0x1F0F7, size: 0x8, addend: 0x0, symName: __ZNSt3__16vectorIdNS_9allocatorIdEEE21_ConstructTransactionC2B7v160006ERS3_m, symObjAddr: 0x4E70, symBinAddr: 0x10000DF0C, symSize: 0x44 }
  - { offsetInCU: 0xA908, offset: 0x1F13D, size: 0x8, addend: 0x0, symName: __ZNSt3__129_AllocatorDestroyRangeReverseINS_9allocatorIdEEPdEC1B7v160006ERS2_RS3_S6_, symObjAddr: 0x4F00, symBinAddr: 0x10000DF9C, symSize: 0x44 }
  - { offsetInCU: 0xA95D, offset: 0x1F192, size: 0x8, addend: 0x0, symName: __ZNSt3__116allocator_traitsINS_9allocatorIdEEE9constructB7v160006IdJRKdEvEEvRS2_PT_DpOT0_, symObjAddr: 0x4F78, symBinAddr: 0x10000E014, symSize: 0x34 }
  - { offsetInCU: 0xA9B6, offset: 0x1F1EB, size: 0x8, addend: 0x0, symName: __ZNKSt3__111__wrap_iterIPKdEdeB7v160006Ev, symObjAddr: 0x4FAC, symBinAddr: 0x10000E048, symSize: 0x18 }
  - { offsetInCU: 0xA9DA, offset: 0x1F20F, size: 0x8, addend: 0x0, symName: __ZNSt3__111__wrap_iterIPKdEppB7v160006Ev, symObjAddr: 0x4FC4, symBinAddr: 0x10000E060, symSize: 0x20 }
  - { offsetInCU: 0xA9FE, offset: 0x1F233, size: 0x8, addend: 0x0, symName: __ZNSt3__128__exception_guard_exceptionsINS_29_AllocatorDestroyRangeReverseINS_9allocatorIdEEPdEEE10__completeB7v160006Ev, symObjAddr: 0x4FE4, symBinAddr: 0x10000E080, symSize: 0x1C }
  - { offsetInCU: 0xAA22, offset: 0x1F257, size: 0x8, addend: 0x0, symName: __ZNSt3__128__exception_guard_exceptionsINS_29_AllocatorDestroyRangeReverseINS_9allocatorIdEEPdEEED1B7v160006Ev, symObjAddr: 0x5000, symBinAddr: 0x10000E09C, symSize: 0x2C }
  - { offsetInCU: 0xAA4A, offset: 0x1F27F, size: 0x8, addend: 0x0, symName: __ZNSt3__128__exception_guard_exceptionsINS_29_AllocatorDestroyRangeReverseINS_9allocatorIdEEPdEEEC1B7v160006ES5_, symObjAddr: 0x502C, symBinAddr: 0x10000E0C8, symSize: 0x34 }
  - { offsetInCU: 0xAA81, offset: 0x1F2B6, size: 0x8, addend: 0x0, symName: __ZNSt3__128__exception_guard_exceptionsINS_29_AllocatorDestroyRangeReverseINS_9allocatorIdEEPdEEEC2B7v160006ES5_, symObjAddr: 0x5060, symBinAddr: 0x10000E0FC, symSize: 0x30 }
  - { offsetInCU: 0xAAB8, offset: 0x1F2ED, size: 0x8, addend: 0x0, symName: __ZNSt3__129_AllocatorDestroyRangeReverseINS_9allocatorIdEEPdEC2B7v160006ERS2_RS3_S6_, symObjAddr: 0x5090, symBinAddr: 0x10000E12C, symSize: 0x38 }
  - { offsetInCU: 0xAB0D, offset: 0x1F342, size: 0x8, addend: 0x0, symName: __ZNSt3__19allocatorIdE9constructB7v160006IdJRKdEEEvPT_DpOT0_, symObjAddr: 0x5110, symBinAddr: 0x10000E1AC, symSize: 0x28 }
  - { offsetInCU: 0xAB63, offset: 0x1F398, size: 0x8, addend: 0x0, symName: __ZNSt3__128__exception_guard_exceptionsINS_29_AllocatorDestroyRangeReverseINS_9allocatorIdEEPdEEED2B7v160006Ev, symObjAddr: 0x5138, symBinAddr: 0x10000E1D4, symSize: 0x48 }
  - { offsetInCU: 0xAB8B, offset: 0x1F3C0, size: 0x8, addend: 0x0, symName: __ZNKSt3__129_AllocatorDestroyRangeReverseINS_9allocatorIdEEPdEclB7v160006Ev, symObjAddr: 0x5180, symBinAddr: 0x10000E21C, symSize: 0x68 }
  - { offsetInCU: 0xABAF, offset: 0x1F3E4, size: 0x8, addend: 0x0, symName: __ZNSt3__116reverse_iteratorIPdEC1B7v160006ES1_, symObjAddr: 0x5258, symBinAddr: 0x10000E2F4, symSize: 0x34 }
  - { offsetInCU: 0xABE5, offset: 0x1F41A, size: 0x8, addend: 0x0, symName: __ZNSt3__116reverse_iteratorIPdEppB7v160006Ev, symObjAddr: 0x52F8, symBinAddr: 0x10000E394, symSize: 0x20 }
  - { offsetInCU: 0xAC09, offset: 0x1F43E, size: 0x8, addend: 0x0, symName: __ZNKSt3__116reverse_iteratorIPdE4baseB7v160006Ev, symObjAddr: 0x5318, symBinAddr: 0x10000E3B4, symSize: 0x18 }
  - { offsetInCU: 0xAC32, offset: 0x1F467, size: 0x8, addend: 0x0, symName: __ZNSt3__119__to_address_helperINS_16reverse_iteratorIPdEEvE6__callB7v160006ERKS3_, symObjAddr: 0x5330, symBinAddr: 0x10000E3CC, symSize: 0x4C }
  - { offsetInCU: 0xAC54, offset: 0x1F489, size: 0x8, addend: 0x0, symName: __ZNKSt3__116reverse_iteratorIPdEptB7v160006Ev, symObjAddr: 0x537C, symBinAddr: 0x10000E418, symSize: 0x24 }
  - { offsetInCU: 0xAC78, offset: 0x1F4AD, size: 0x8, addend: 0x0, symName: __ZNKSt3__116reverse_iteratorIPdEdeB7v160006Ev, symObjAddr: 0x53A0, symBinAddr: 0x10000E43C, symSize: 0x28 }
  - { offsetInCU: 0xACAA, offset: 0x1F4DF, size: 0x8, addend: 0x0, symName: __ZNSt3__116reverse_iteratorIPdEC2B7v160006ES1_, symObjAddr: 0x53C8, symBinAddr: 0x10000E464, symSize: 0x28 }
  - { offsetInCU: 0xACE0, offset: 0x1F515, size: 0x8, addend: 0x0, symName: __ZNSt3__16vectorIdNS_9allocatorIdEEE21_ConstructTransactionD2B7v160006Ev, symObjAddr: 0x53F0, symBinAddr: 0x10000E48C, symSize: 0x20 }
  - { offsetInCU: 0xAD08, offset: 0x1F53D, size: 0x8, addend: 0x0, symName: __ZNSt3__16vectorIdNS_9allocatorIdEEE27__invalidate_iterators_pastB7v160006EPd, symObjAddr: 0x5410, symBinAddr: 0x10000E4AC, symSize: 0x14 }
  - { offsetInCU: 0xAD3D, offset: 0x1F572, size: 0x8, addend: 0x0, symName: __ZNKSt3__16vectorIdNS_9allocatorIdEEE17__annotate_shrinkB7v160006Em, symObjAddr: 0x5424, symBinAddr: 0x10000E4C0, symSize: 0xB4 }
  - { offsetInCU: 0xAD70, offset: 0x1F5A5, size: 0x8, addend: 0x0, symName: __ZNSt3__16vectorIdNS_9allocatorIdEEE5clearB7v160006Ev, symObjAddr: 0x54D8, symBinAddr: 0x10000E574, symSize: 0x68 }
  - { offsetInCU: 0xADA3, offset: 0x1F5D8, size: 0x8, addend: 0x0, symName: __ZNSt3__16vectorIdNS_9allocatorIdEEE9__end_capB7v160006Ev, symObjAddr: 0x5540, symBinAddr: 0x10000E5DC, symSize: 0x28 }
  - { offsetInCU: 0xADC7, offset: 0x1F5FC, size: 0x8, addend: 0x0, symName: __ZNSt3__117__compressed_pairIPdNS_9allocatorIdEEE5firstB7v160006Ev, symObjAddr: 0x5568, symBinAddr: 0x10000E604, symSize: 0x24 }
  - { offsetInCU: 0xADEB, offset: 0x1F620, size: 0x8, addend: 0x0, symName: __ZNSt3__122__compressed_pair_elemIPdLi0ELb0EE5__getB7v160006Ev, symObjAddr: 0x558C, symBinAddr: 0x10000E628, symSize: 0x14 }
  - { offsetInCU: 0xAE0F, offset: 0x1F644, size: 0x8, addend: 0x0, symName: __ZNKSt3__16vectorIdNS_9allocatorIdEEE8max_sizeEv, symObjAddr: 0x55A0, symBinAddr: 0x10000E63C, symSize: 0x74 }
  - { offsetInCU: 0xAE35, offset: 0x1F66A, size: 0x8, addend: 0x0, symName: __ZNKSt3__16vectorIdNS_9allocatorIdEEE20__throw_length_errorB7v160006Ev, symObjAddr: 0x5614, symBinAddr: 0x10000E6B0, symSize: 0x1C }
  - { offsetInCU: 0xAE59, offset: 0x1F68E, size: 0x8, addend: 0x0, symName: __ZNKSt3__16vectorIdNS_9allocatorIdEEE14__annotate_newB7v160006Em, symObjAddr: 0x5670, symBinAddr: 0x10000E70C, symSize: 0xAC }
  - { offsetInCU: 0xAE96, offset: 0x1F6CB, size: 0x8, addend: 0x0, symName: __ZNSt3__116allocator_traitsINS_9allocatorIdEEE8max_sizeB7v160006IS2_vEEmRKS2_, symObjAddr: 0x5748, symBinAddr: 0x10000E7B8, symSize: 0x24 }
  - { offsetInCU: 0xAEC4, offset: 0x1F6F9, size: 0x8, addend: 0x0, symName: __ZNKSt3__16vectorIdNS_9allocatorIdEEE7__allocB7v160006Ev, symObjAddr: 0x576C, symBinAddr: 0x10000E7DC, symSize: 0x28 }
  - { offsetInCU: 0xAEE8, offset: 0x1F71D, size: 0x8, addend: 0x0, symName: __ZNKSt3__19allocatorIdE8max_sizeB7v160006Ev, symObjAddr: 0x5830, symBinAddr: 0x10000E804, symSize: 0x14 }
  - { offsetInCU: 0xAF0C, offset: 0x1F741, size: 0x8, addend: 0x0, symName: __ZNKSt3__117__compressed_pairIPdNS_9allocatorIdEEE6secondB7v160006Ev, symObjAddr: 0x5844, symBinAddr: 0x10000E818, symSize: 0x24 }
  - { offsetInCU: 0xAF30, offset: 0x1F765, size: 0x8, addend: 0x0, symName: __ZNKSt3__122__compressed_pair_elemINS_9allocatorIdEELi1ELb1EE5__getB7v160006Ev, symObjAddr: 0x5868, symBinAddr: 0x10000E83C, symSize: 0x14 }
  - { offsetInCU: 0xAF54, offset: 0x1F789, size: 0x8, addend: 0x0, symName: __ZNSt3__19allocatorIdE8allocateB7v160006Em, symObjAddr: 0x5968, symBinAddr: 0x10000E850, symSize: 0x84 }
  - { offsetInCU: 0xAF86, offset: 0x1F7BB, size: 0x8, addend: 0x0, symName: __ZNSt3__16vectorIdNS_9allocatorIdEEE18__construct_at_endEmRKd, symObjAddr: 0x5B30, symBinAddr: 0x10000E918, symSize: 0xD8 }
...
